EXPORTS
    XML_DefaultCurrent @1
    XML_ErrorString @2
    XML_ExpatVersion @3
    XML_ExpatVersionInfo @4
    XML_ExternalEntityParserCreate @5
    XML_FreeContentModel @6
    XML_GetBase @7
    XML_GetBuffer @8
    XML_GetCurrentByteCount @9
    XML_GetCurrentByteIndex @10
    XML_GetCurrentColumnNumber @11
    XML_GetCurrentLineNumber @12
    XML_GetErrorCode @13
    XML_GetFeatureList @14
    XML_GetIdAttributeIndex @15
    XML_GetInputContext @16
    XML_GetParsingStatus @17
    XML_GetSpecifiedAttributeCount @18
    XML_MemFree @19
    XML_MemMalloc @20
    XML_MemRealloc @21
    XML_Parse @22
    XML_ParseBuffer @23
    XML_ParserCreate @24
    XML_ParserCreateNS @25
    XML_ParserCreate_MM @26
    XML_ParserFree @27
    XML_ParserReset @28
    XML_ResumeParser @29
    XML_SetAttlistDeclHandler @30
    XML_SetBase @31
    XML_SetCdataSectionHandler @32
    XML_SetCharacterDataHandler @33
    XML_SetCommentHandler @34
    XML_SetDefaultHandler @35
    XML_SetDefaultHandlerExpand @36
    XML_SetDoctypeDeclHandler @37
    XML_SetElementDeclHandler @38
    XML_SetElementHandler @39
    XML_SetEncoding @40
    XML_SetEndCdataSectionHandler @41
    XML_SetEndDoctypeDeclHandler @42
    XML_SetEndElementHandler @43
    XML_SetEndNamespaceDeclHandler @44
    XML_SetEntityDeclHandler @45
    XML_SetExternalEntityRefHandler @46
    XML_SetExternalEntityRefHandlerArg @47
    XML_SetHashSalt @48
    XML_SetNamespaceDeclHandler @49
    XML_SetNotStandaloneHandler @50
    XML_SetNotationDeclHandler @51
    XML_SetParamEntityParsing @52
    XML_SetProcessingInstructionHandler @53
    XML_SetReturnNSTriplet @54
    XML_SetSkippedEntityHandler @55
    XML_SetStartCdataSectionHandler @56
    XML_SetStartDoctypeDeclHandler @57
    XML_SetStartElementHandler @58
    XML_SetStartNamespaceDeclHandler @59
    XML_SetUnknownEncodingHandler @60
    XML_SetUnparsedEntityDeclHandler @61
    XML_SetUserData @62
    XML_SetXmlDeclHandler @63
    XML_StopParser @64
    XML_UseForeignDTD @65
    XML_UseParserAsHandlerArg @66
    XmlGetUtf16InternalEncoding @67
    XmlGetUtf16InternalEncodingNS @68
    XmlGetUtf8InternalEncoding @69
    XmlGetUtf8InternalEncodingNS @70
    XmlInitEncoding @71
    XmlInitEncodingNS @72
    XmlInitUnknownEncoding @73
    XmlInitUnknownEncodingNS @74
    XmlParseXmlDecl @75
    XmlParseXmlDeclNS @76
    XmlPrologStateInit @77
    XmlPrologStateInitExternalEntity @78
    XmlSizeOfUnknownEncoding @79
    XmlUtf16Encode @80
    XmlUtf8Encode @81
    _Z10confess_atPKciS0_S0_z @82
    _Z11trim_zeroesNSt7__cxx1112basic_stringIcSt11char_traitsIcESaIcEEE @83
    _Z12_trim_zeroesNSt7__cxx1112basic_stringIcSt11char_traitsIcESaIcEEE @84
    _Z14split_at_regexRKNSt7__cxx1112basic_stringIcSt11char_traitsIcESaIcEEES6_ @85
    _Z16LU_factor_bandedI6MatrixIdEEiRT_j @86
    _Z9vsnprintfPcyPKcS_ @87
    _ZGVN5boost16exception_detail37exception_ptr_static_exception_objectINS0_10bad_alloc_EE1eE @88 DATA
    _ZGVN5boost16exception_detail37exception_ptr_static_exception_objectINS0_14bad_exception_EE1eE @89 DATA
    _ZGVZN5boost16exception_detail27get_static_exception_objectINS0_10bad_alloc_EEENS_13exception_ptrEvE2ep @90 DATA
    _ZGVZN5boost16exception_detail27get_static_exception_objectINS0_14bad_exception_EEENS_13exception_ptrEvE2ep @91 DATA
    _ZGVZNK5boost6system14error_category11init_stdcatEvE3mx_ @92 DATA
    _ZGVZNK5boost6system14error_categorycvRKNSt3_V214error_categoryEEvE15system_instance @93 DATA
    _ZGVZNKSt8__detail11_AnyMatcherINSt7__cxx1112regex_traitsIcEELb0ELb0ELb0EEclEcE5__nul @94 DATA
    _ZGVZNKSt8__detail11_AnyMatcherINSt7__cxx1112regex_traitsIcEELb0ELb0ELb1EEclEcE5__nul @95 DATA
    _ZGVZNKSt8__detail11_AnyMatcherINSt7__cxx1112regex_traitsIcEELb0ELb1ELb0EEclEcE5__nul @96 DATA
    _ZGVZNKSt8__detail11_AnyMatcherINSt7__cxx1112regex_traitsIcEELb0ELb1ELb1EEclEcE5__nul @97 DATA
    _ZN10ClipperLib10GetOverlapExxxxRxS0_ @98
    _ZN10ClipperLib10PointCountEPNS_5OutPtE @99
    _ZN10ClipperLib10RemoveEdgeEPNS_5TEdgeE @100
    _ZN10ClipperLib10SwapPointsERNS_8IntPointES1_ @101
    _ZN10ClipperLib11ClipperBase11PopScanbeamERx @102
    _ZN10ClipperLib11ClipperBase12CreateOutRecEv @103
    _ZN10ClipperLib11ClipperBase12ProcessBoundEPNS_5TEdgeEb @104
    _ZN10ClipperLib11ClipperBase13DeleteFromAELEPNS_5TEdgeE @105
    _ZN10ClipperLib11ClipperBase13DisposeOutRecEy @106
    _ZN10ClipperLib11ClipperBase14InsertScanbeamEx @107
    _ZN10ClipperLib11ClipperBase14PopLocalMinimaExRPKNS_12LocalMinimumE @108
    _ZN10ClipperLib11ClipperBase17DisposeAllOutRecsEv @109
    _ZN10ClipperLib11ClipperBase17UpdateEdgeIntoAELERPNS_5TEdgeE @110
    _ZN10ClipperLib11ClipperBase18LocalMinimaPendingEv @111
    _ZN10ClipperLib11ClipperBase18SwapPositionsInAELEPNS_5TEdgeES2_ @112
    _ZN10ClipperLib11ClipperBase22DisposeLocalMinimaListEv @113
    _ZN10ClipperLib11ClipperBase5ClearEv @114
    _ZN10ClipperLib11ClipperBase5ResetEv @115
    _ZN10ClipperLib11ClipperBase7AddPathERKSt6vectorINS_8IntPointESaIS2_EENS_8PolyTypeEb @116
    _ZN10ClipperLib11ClipperBase8AddPathsERKSt6vectorIS1_INS_8IntPointESaIS2_EESaIS4_EENS_8PolyTypeEb @117
    _ZN10ClipperLib11ClipperBase9GetBoundsEv @118
    _ZN10ClipperLib11ClipperBaseC1Ev @119
    _ZN10ClipperLib11ClipperBaseC2Ev @120
    _ZN10ClipperLib11ClipperBaseD0Ev @121
    _ZN10ClipperLib11ClipperBaseD1Ev @122
    _ZN10ClipperLib11ClipperBaseD2Ev @123
    _ZN10ClipperLib11GetBottomPtEPNS_5OutPtE @124
    _ZN10ClipperLib11OrientationERKSt6vectorINS_8IntPointESaIS1_EE @125
    _ZN10ClipperLib11ReversePathERSt6vectorINS_8IntPointESaIS1_EE @126
    _ZN10ClipperLib11SlopesEqualENS_8IntPointES0_S0_S0_b @127
    _ZN10ClipperLib11SlopesEqualENS_8IntPointES0_S0_b @128
    _ZN10ClipperLib11SlopesEqualERKNS_5TEdgeES2_b @129
    _ZN10ClipperLib12CleanPolygonERKSt6vectorINS_8IntPointESaIS1_EERS3_d @130
    _ZN10ClipperLib12CleanPolygonERSt6vectorINS_8IntPointESaIS1_EEd @131
    _ZN10ClipperLib12GetNextInAELEPNS_5TEdgeENS_9DirectionE @132
    _ZN10ClipperLib12MinkowskiSumERKSt6vectorINS_8IntPointESaIS1_EERKS0_IS3_SaIS3_EERS7_b @133
    _ZN10ClipperLib12MinkowskiSumERKSt6vectorINS_8IntPointESaIS1_EES5_RS0_IS3_SaIS3_EEb @134
    _ZN10ClipperLib12ReversePathsERSt6vectorIS0_INS_8IntPointESaIS1_EESaIS3_EE @135
    _ZN10ClipperLib13CleanPolygonsERKSt6vectorIS0_INS_8IntPointESaIS1_EESaIS3_EERS5_d @136
    _ZN10ClipperLib13CleanPolygonsERSt6vectorIS0_INS_8IntPointESaIS1_EESaIS3_EEd @137
    _ZN10ClipperLib13ClipperOffset11OffsetPointEiRiNS_8JoinTypeE @138
    _ZN10ClipperLib13ClipperOffset15FixOrientationsEv @139
    _ZN10ClipperLib13ClipperOffset5ClearEv @140
    _ZN10ClipperLib13ClipperOffset7AddPathERKSt6vectorINS_8IntPointESaIS2_EENS_8JoinTypeENS_7EndTypeE @141
    _ZN10ClipperLib13ClipperOffset7DoMiterEiid @142
    _ZN10ClipperLib13ClipperOffset7DoRoundEii @143
    _ZN10ClipperLib13ClipperOffset7ExecuteERNS_8PolyTreeEd @144
    _ZN10ClipperLib13ClipperOffset7ExecuteERSt6vectorIS1_INS_8IntPointESaIS2_EESaIS4_EEd @145
    _ZN10ClipperLib13ClipperOffset8AddPathsERKSt6vectorIS1_INS_8IntPointESaIS2_EESaIS4_EENS_8JoinTypeENS_7EndTypeE @146
    _ZN10ClipperLib13ClipperOffset8DoOffsetEd @147
    _ZN10ClipperLib13ClipperOffset8DoSquareEii @148
    _ZN10ClipperLib13ClipperOffsetC1Edd @149
    _ZN10ClipperLib13ClipperOffsetC2Edd @150
    _ZN10ClipperLib13ClipperOffsetD1Ev @151
    _ZN10ClipperLib13ClipperOffsetD2Ev @152
    _ZN10ClipperLib13DisposeOutPtsERPNS_5OutPtE @153
    _ZN10ClipperLib13GetMaximaPairEPNS_5TEdgeE @154
    _ZN10ClipperLib13GetUnitNormalERKNS_8IntPointES2_ @155
    _ZN10ClipperLib13MinkowskiDiffERKSt6vectorINS_8IntPointESaIS1_EES5_RS0_IS3_SaIS3_EE @156
    _ZN10ClipperLib13PointIsVertexERKNS_8IntPointEPNS_5OutPtE @157
    _ZN10ClipperLib13TranslatePathERKSt6vectorINS_8IntPointESaIS1_EERS3_S1_ @158
    _ZN10ClipperLib14FindNextLocMinEPNS_5TEdgeE @159
    _ZN10ClipperLib14IntersectPointERNS_5TEdgeES1_RNS_8IntPointE @160
    _ZN10ClipperLib14PointInPolygonERKNS_8IntPointEPNS_5OutPtE @161
    _ZN10ClipperLib14PointInPolygonERKNS_8IntPointERKSt6vectorIS0_SaIS0_EE @162
    _ZN10ClipperLib14PointsAreCloseENS_8IntPointES0_d @163
    _ZN10ClipperLib15FirstIsBottomPtEPKNS_5OutPtES2_ @164
    _ZN10ClipperLib15GetLowermostRecEPNS_6OutRecES1_ @165
    _ZN10ClipperLib15GetMaximaPairExEPNS_5TEdgeE @166
    _ZN10ClipperLib15PolyTreeToPathsERKNS_8PolyTreeERSt6vectorIS3_INS_8IntPointESaIS4_EESaIS6_EE @167
    _ZN10ClipperLib15SimplifyPolygonERKSt6vectorINS_8IntPointESaIS1_EERS0_IS3_SaIS3_EENS_12PolyFillTypeE @168
    _ZN10ClipperLib16GetHorzDirectionERNS_5TEdgeERNS_9DirectionERxS4_ @169
    _ZN10ClipperLib16SimplifyPolygonsERKSt6vectorIS0_INS_8IntPointESaIS1_EESaIS3_EERS5_NS_12PolyFillTypeE @170
    _ZN10ClipperLib16SimplifyPolygonsERSt6vectorIS0_INS_8IntPointESaIS1_EESaIS3_EENS_12PolyFillTypeE @171
    _ZN10ClipperLib16clipperExceptionC1EPKc @172
    _ZN10ClipperLib16clipperExceptionD0Ev @173
    _ZN10ClipperLib16clipperExceptionD1Ev @174
    _ZN10ClipperLib17GetOverlapSegmentENS_8IntPointES0_S0_S0_RS0_S1_ @175
    _ZN10ClipperLib17IntersectListSortEPNS_13IntersectNodeES1_ @176
    _ZN10ClipperLib18AddPolyNodeToPathsERKNS_8PolyNodeENS_8NodeTypeERSt6vectorIS4_INS_8IntPointESaIS5_EESaIS7_EE @177
    _ZN10ClipperLib18Poly2ContainsPoly1EPNS_5OutPtES1_ @178
    _ZN10ClipperLib18ReversePolyPtLinksEPNS_5OutPtE @179
    _ZN10ClipperLib18SwapIntersectNodesERNS_13IntersectNodeES1_ @180
    _ZN10ClipperLib19HorzSegmentsOverlapExxxx @181
    _ZN10ClipperLib19SlopesNearCollinearERKNS_8IntPointES2_S2_d @182
    _ZN10ClipperLib20DistanceFromLineSqrdERKNS_8IntPointES2_S2_ @183
    _ZN10ClipperLib21OpenPathsFromPolyTreeERNS_8PolyTreeERSt6vectorIS2_INS_8IntPointESaIS3_EESaIS5_EE @184
    _ZN10ClipperLib21OutRec1RightOfOutRec2EPNS_6OutRecES1_ @185
    _ZN10ClipperLib21Pt2IsBetweenPt1AndPt3ENS_8IntPointES0_S0_ @186
    _ZN10ClipperLib23ClosedPathsFromPolyTreeERKNS_8PolyTreeERSt6vectorIS3_INS_8IntPointESaIS4_EESaIS6_EE @187
    _ZN10ClipperLib4AreaEPKNS_5OutPtE @188
    _ZN10ClipperLib4AreaERKNS_6OutRecE @189
    _ZN10ClipperLib4AreaERKSt6vectorINS_8IntPointESaIS1_EE @190
    _ZN10ClipperLib7Clipper10ClearJoinsEv @191
    _ZN10ClipperLib7Clipper10JoinPointsEPNS_4JoinEPNS_6OutRecES4_ @192
    _ZN10ClipperLib7Clipper11BuildResultERSt6vectorIS1_INS_8IntPointESaIS2_EESaIS4_EE @193
    _ZN10ClipperLib7Clipper12AddEdgeToSELEPNS_5TEdgeE @194
    _ZN10ClipperLib7Clipper12AddGhostJoinEPNS_5OutPtENS_8IntPointE @195
    _ZN10ClipperLib7Clipper12BuildResult2ERNS_8PolyTreeE @196
    _ZN10ClipperLib7Clipper12CopyAELToSELEv @197
    _ZN10ClipperLib7Clipper12GetLastOutPtEPNS_5TEdgeE @198
    _ZN10ClipperLib7Clipper12SetHoleStateEPNS_5TEdgeEPNS_6OutRecE @199
    _ZN10ClipperLib7Clipper13AppendPolygonEPNS_5TEdgeES2_ @200
    _ZN10ClipperLib7Clipper13DeleteFromSELEPNS_5TEdgeE @201
    _ZN10ClipperLib7Clipper14FixHoleLinkageERNS_6OutRecE @202
    _ZN10ClipperLib7Clipper14IntersectEdgesEPNS_5TEdgeES2_RNS_8IntPointE @203
    _ZN10ClipperLib7Clipper14PopEdgeFromSELERPNS_5TEdgeE @204
    _ZN10ClipperLib7Clipper15AddLocalMaxPolyEPNS_5TEdgeES2_RKNS_8IntPointE @205
    _ZN10ClipperLib7Clipper15AddLocalMinPolyEPNS_5TEdgeES2_RKNS_8IntPointE @206
    _ZN10ClipperLib7Clipper15ClearGhostJoinsEv @207
    _ZN10ClipperLib7Clipper15ExecuteInternalEv @208
    _ZN10ClipperLib7Clipper15FixupOutPolygonERNS_6OutRecE @209
    _ZN10ClipperLib7Clipper15JoinCommonEdgesEv @210
    _ZN10ClipperLib7Clipper15SetWindingCountERNS_5TEdgeE @211
    _ZN10ClipperLib7Clipper16DoSimplePolygonsEv @212
    _ZN10ClipperLib7Clipper16FixupFirstLefts1EPNS_6OutRecES2_ @213
    _ZN10ClipperLib7Clipper16FixupFirstLefts2EPNS_6OutRecES2_ @214
    _ZN10ClipperLib7Clipper16FixupFirstLefts3EPNS_6OutRecES2_ @215
    _ZN10ClipperLib7Clipper16FixupOutPolylineERNS_6OutRecE @216
    _ZN10ClipperLib7Clipper17InsertEdgeIntoAELEPNS_5TEdgeES2_ @217
    _ZN10ClipperLib7Clipper17ProcessHorizontalEPNS_5TEdgeE @218
    _ZN10ClipperLib7Clipper18BuildIntersectListEx @219
    _ZN10ClipperLib7Clipper18ProcessHorizontalsEv @220
    _ZN10ClipperLib7Clipper18SwapPositionsInSELEPNS_5TEdgeES2_ @221
    _ZN10ClipperLib7Clipper20ProcessIntersectListEv @222
    _ZN10ClipperLib7Clipper20ProcessIntersectionsEx @223
    _ZN10ClipperLib7Clipper21DisposeIntersectNodesEv @224
    _ZN10ClipperLib7Clipper22FixupIntersectionOrderEv @225
    _ZN10ClipperLib7Clipper24InsertLocalMinimaIntoAELEx @226
    _ZN10ClipperLib7Clipper27ProcessEdgesAtTopOfScanbeamEx @227
    _ZN10ClipperLib7Clipper7AddJoinEPNS_5OutPtES2_NS_8IntPointE @228
    _ZN10ClipperLib7Clipper7ExecuteENS_8ClipTypeERNS_8PolyTreeENS_12PolyFillTypeE @229
    _ZN10ClipperLib7Clipper7ExecuteENS_8ClipTypeERNS_8PolyTreeENS_12PolyFillTypeES4_ @230
    _ZN10ClipperLib7Clipper7ExecuteENS_8ClipTypeERSt6vectorIS2_INS_8IntPointESaIS3_EESaIS5_EENS_12PolyFillTypeE @231
    _ZN10ClipperLib7Clipper7ExecuteENS_8ClipTypeERSt6vectorIS2_INS_8IntPointESaIS3_EESaIS5_EENS_12PolyFillTypeES9_ @232
    _ZN10ClipperLib7Clipper8AddOutPtEPNS_5TEdgeERKNS_8IntPointE @233
    _ZN10ClipperLib7Clipper8DoMaximaEPNS_5TEdgeE @234
    _ZN10ClipperLib7Clipper9GetOutRecEi @235
    _ZN10ClipperLib7ClipperC1Ei @236
    _ZN10ClipperLib7ClipperC2Ei @237
    _ZN10ClipperLib7ClipperD0Ev @238
    _ZN10ClipperLib7ClipperD1Ev @239
    _ZN10ClipperLib8DupOutPtEPNS_5OutPtEb @240
    _ZN10ClipperLib8JoinHorzEPNS_5OutPtES1_S1_S1_NS_8IntPointEb @241
    _ZN10ClipperLib8PolyNode8AddChildERS0_ @242
    _ZN10ClipperLib8PolyNodeC1Ev @243
    _ZN10ClipperLib8PolyNodeC2Ev @244
    _ZN10ClipperLib8PolyNodeD0Ev @245
    _ZN10ClipperLib8PolyNodeD1Ev @246
    _ZN10ClipperLib8PolyTree5ClearEv @247
    _ZN10ClipperLib8PolyTreeD0Ev @248
    _ZN10ClipperLib8PolyTreeD1Ev @249
    _ZN10ClipperLib9ExcludeOpEPNS_5OutPtE @250
    _ZN10ClipperLib9InitEdge2ERNS_5TEdgeENS_8PolyTypeE @251
    _ZN10ClipperLib9Int128MulExx @252
    _ZN10ClipperLib9MinkowskiERKSt6vectorINS_8IntPointESaIS1_EES5_RS0_IS3_SaIS3_EEbb @253
    _ZN10ClipperLib9RangeTestERKNS_8IntPointERb @254
    _ZN10ClipperLiblsERSoRKNS_8IntPointE @255
    _ZN10ClipperLiblsERSoRKSt6vectorINS_8IntPointESaIS2_EE @256
    _ZN10ClipperLiblsERSoRKSt6vectorIS1_INS_8IntPointESaIS2_EESaIS4_EE @257
    _ZN10NullStream8overflowEi @258
    _ZN10NullStreamD0Ev @259
    _ZN10NullStreamD1Ev @260
    _ZN11BSplineBaseIdE10calculateQEv @261
    _ZN11BSplineBaseIdE11ImplVersionEv @262
    _ZN11BSplineBaseIdE12IfaceVersionEv @263
    _ZN11BSplineBaseIdE18BoundaryConditionsE @264 DATA
    _ZN11BSplineBaseIdE2nXEv @265
    _ZN11BSplineBaseIdE2okEv @266
    _ZN11BSplineBaseIdE4BetaEi @267
    _ZN11BSplineBaseIdE4XmaxEv @268
    _ZN11BSplineBaseIdE4XminEv @269
    _ZN11BSplineBaseIdE4addPEv @270
    _ZN11BSplineBaseIdE5AlphaEd @271
    _ZN11BSplineBaseIdE5AlphaEv @272
    _ZN11BSplineBaseIdE5BS_PIE @273 DATA
    _ZN11BSplineBaseIdE5BasisEid @274
    _ZN11BSplineBaseIdE5DebugEi @275
    _ZN11BSplineBaseIdE5SetupEi @276
    _ZN11BSplineBaseIdE5applyEPKd @277
    _ZN11BSplineBaseIdE5nodesEPi @278
    _ZN11BSplineBaseIdE6DBasisEid @279
    _ZN11BSplineBaseIdE6RatiodERiRdS2_ @280
    _ZN11BSplineBaseIdE6factorEv @281
    _ZN11BSplineBaseIdE6nNodesEv @282
    _ZN11BSplineBaseIdE6qDeltaEii @283
    _ZN11BSplineBaseIdE9setDomainEPKdidii @284
    _ZN11BSplineBaseIdEC1EPKdidii @285
    _ZN11BSplineBaseIdEC1ERKS0_ @286
    _ZN11BSplineBaseIdEC2EPKdidii @287
    _ZN11BSplineBaseIdEC2ERKS0_ @288
    _ZN11BSplineBaseIdED0Ev @289
    _ZN11BSplineBaseIdED1Ev @290
    _ZN11BSplineBaseIdED2Ev @291
    _ZN12BSplineBasePIdEC1ERKS0_ @292
    _ZN13TPPLPartition10IntersectsER9TPPLPointS1_S1_S1_ @293
    _ZN13TPPLPartition11AddDiagonalEPNS_14MonotoneVertexEPlll @294
    _ZN13TPPLPartition11RemoveHolesEPNSt7__cxx114listI8TPPLPolySaIS2_EEES5_ @295
    _ZN13TPPLPartition11UpdateStateElllllPPNS_8DPState2E @296
    _ZN13TPPLPartition12UpdateVertexEPNS_15PartitionVertexES1_l @297
    _ZN13TPPLPartition14Triangulate_ECEP8TPPLPolyPNSt7__cxx114listIS0_SaIS0_EEE @298
    _ZN13TPPLPartition14Triangulate_ECEPNSt7__cxx114listI8TPPLPolySaIS2_EEES5_ @299
    _ZN13TPPLPartition15Triangulate_OPTEP8TPPLPolyPNSt7__cxx114listIS0_SaIS0_EEE @300
    _ZN13TPPLPartition16Triangulate_MONOEP8TPPLPolyPNSt7__cxx114listIS0_SaIS0_EEE @301
    _ZN13TPPLPartition16Triangulate_MONOEPNSt7__cxx114listI8TPPLPolySaIS2_EEES5_ @302
    _ZN13TPPLPartition17MonotonePartitionEPNSt7__cxx114listI8TPPLPolySaIS2_EEES5_ @303
    _ZN13TPPLPartition18ConvexPartition_HMEP8TPPLPolyPNSt7__cxx114listIS0_SaIS0_EEE @304
    _ZN13TPPLPartition18ConvexPartition_HMEPNSt7__cxx114listI8TPPLPolySaIS2_EEES5_ @305
    _ZN13TPPLPartition19ConvexPartition_OPTEP8TPPLPolyPNSt7__cxx114listIS0_SaIS0_EEE @306
    _ZN13TPPLPartition19TriangulateMonotoneEP8TPPLPolyPNSt7__cxx114listIS0_SaIS0_EEE @307
    _ZN13TPPLPartition21UpdateVertexReflexityEPNS_15PartitionVertexE @308
    _ZN13TPPLPartition5BelowER9TPPLPointS1_ @309
    _ZN13TPPLPartition5TypeAElllPNS_15PartitionVertexEPPNS_8DPState2E @310
    _ZN13TPPLPartition5TypeBElllPNS_15PartitionVertexEPPNS_8DPState2E @311
    _ZN13TPPLPartition6InConeEPNS_15PartitionVertexER9TPPLPoint @312
    _ZN13TPPLPartition6InConeER9TPPLPointS1_S1_S1_ @313
    _ZN13TPPLPartition8DistanceERK9TPPLPointS2_ @314
    _ZN13TPPLPartition8IsConvexER9TPPLPointS1_S1_ @315
    _ZN13TPPLPartition8IsInsideER9TPPLPointS1_S1_S1_ @316
    _ZN13TPPLPartition8IsReflexER9TPPLPointS1_S1_ @317
    _ZN13TPPLPartition9NormalizeERK9TPPLPoint @318
    _ZN3p2t10InScanAreaERKNS_5PointES2_S2_S2_ @319
    _ZN3p2t12SweepContext10LocateNodeERKNS_5PointE @320
    _ZN3p2t12SweepContext10RemoveNodeEPNS_4NodeE @321
    _ZN3p2t12SweepContext12GetTrianglesEv @322
    _ZN3p2t12SweepContext13RemoveFromMapEPNS_8TriangleE @323
    _ZN3p2t12SweepContext17InitTriangulationEv @324
    _ZN3p2t12SweepContext18MapTriangleToNodesERNS_8TriangleE @325
    _ZN3p2t12SweepContext20CreateAdvancingFrontERKSt6vectorIPNS_4NodeESaIS3_EE @326
    _ZN3p2t12SweepContext6GetMapB5cxx11Ev @327
    _ZN3p2t12SweepContext7AddHoleERKSt6vectorIPNS_5PointESaIS3_EE @328
    _ZN3p2t12SweepContext8AddPointEPNS_5PointE @329
    _ZN3p2t12SweepContext8AddToMapEPNS_8TriangleE @330
    _ZN3p2t12SweepContext8GetPointEy @331
    _ZN3p2t12SweepContext9InitEdgesERKSt6vectorIPNS_5PointESaIS3_EE @332
    _ZN3p2t12SweepContext9MeshCleanERNS_8TriangleE @333
    _ZN3p2t12SweepContextC1ERKSt6vectorIPNS_5PointESaIS3_EE @334
    _ZN3p2t12SweepContextC2ERKSt6vectorIPNS_5PointESaIS3_EE @335
    _ZN3p2t12SweepContextD1Ev @336
    _ZN3p2t12SweepContextD2Ev @337
    _ZN3p2t14AdvancingFront10LocateNodeEd @338
    _ZN3p2t14AdvancingFront11LocatePointEPKNS_5PointE @339
    _ZN3p2t14AdvancingFront14FindSearchNodeEd @340
    _ZN3p2t14AdvancingFrontC1ERNS_4NodeES2_ @341
    _ZN3p2t14AdvancingFrontC2ERNS_4NodeES2_ @342
    _ZN3p2t14AdvancingFrontD1Ev @343
    _ZN3p2t14AdvancingFrontD2Ev @344
    _ZN3p2t3CDT11TriangulateEv @345
    _ZN3p2t3CDT12GetTrianglesEv @346
    _ZN3p2t3CDT6GetMapB5cxx11Ev @347
    _ZN3p2t3CDT7AddHoleERKSt6vectorIPNS_5PointESaIS3_EE @348
    _ZN3p2t3CDT8AddPointEPNS_5PointE @349
    _ZN3p2t3CDTC1ERKSt6vectorIPNS_5PointESaIS3_EE @350
    _ZN3p2t3CDTC2ERKSt6vectorIPNS_5PointESaIS3_EE @351
    _ZN3p2t3CDTD1Ev @352
    _ZN3p2t3CDTD2Ev @353
    _ZN3p2t3cmpEPKNS_5PointES2_ @354
    _ZN3p2t5Sweep10PointEventERNS_12SweepContextERNS_5PointE @355
    _ZN3p2t5Sweep11SweepPointsERNS_12SweepContextE @356
    _ZN3p2t5Sweep11TriangulateERNS_12SweepContextE @357
    _ZN3p2t5Sweep12FillBasinReqERNS_12SweepContextEPNS_4NodeE @358
    _ZN3p2t5Sweep13FillEdgeEventERNS_12SweepContextEPNS_4EdgeEPNS_4NodeE @359
    _ZN3p2t5Sweep13FlipEdgeEventERNS_12SweepContextERNS_5PointES4_PNS_8TriangleES4_ @360
    _ZN3p2t5Sweep13NextFlipPointERNS_5PointES2_RNS_8TriangleES2_ @361
    _ZN3p2t5Sweep16NewFrontTriangleERNS_12SweepContextERNS_5PointERNS_4NodeE @362
    _ZN3p2t5Sweep16NextFlipTriangleERNS_12SweepContextEiRNS_8TriangleES4_RNS_5PointES6_ @363
    _ZN3p2t5Sweep17FlipScanEdgeEventERNS_12SweepContextERNS_5PointES4_RNS_8TriangleES6_S4_ @364
    _ZN3p2t5Sweep18FillAdvancingFrontERNS_12SweepContextERNS_4NodeE @365
    _ZN3p2t5Sweep19FinalizationPolygonERNS_12SweepContextE @366
    _ZN3p2t5Sweep20IsEdgeSideOfTriangleERNS_8TriangleERNS_5PointES4_ @367
    _ZN3p2t5Sweep22FillLeftAboveEdgeEventERNS_12SweepContextEPNS_4EdgeEPNS_4NodeE @368
    _ZN3p2t5Sweep22FillLeftBelowEdgeEventERNS_12SweepContextEPNS_4EdgeERNS_4NodeE @369
    _ZN3p2t5Sweep23FillLeftConvexEdgeEventERNS_12SweepContextEPNS_4EdgeERNS_4NodeE @370
    _ZN3p2t5Sweep23FillRightAboveEdgeEventERNS_12SweepContextEPNS_4EdgeEPNS_4NodeE @371
    _ZN3p2t5Sweep23FillRightBelowEdgeEventERNS_12SweepContextEPNS_4EdgeERNS_4NodeE @372
    _ZN3p2t5Sweep24FillLeftConcaveEdgeEventERNS_12SweepContextEPNS_4EdgeERNS_4NodeE @373
    _ZN3p2t5Sweep24FillRightConvexEdgeEventERNS_12SweepContextEPNS_4EdgeERNS_4NodeE @374
    _ZN3p2t5Sweep25FillRightConcaveEdgeEventERNS_12SweepContextEPNS_4EdgeERNS_4NodeE @375
    _ZN3p2t5Sweep4FillERNS_12SweepContextERNS_4NodeE @376
    _ZN3p2t5Sweep8LegalizeERNS_12SweepContextERNS_8TriangleE @377
    _ZN3p2t5Sweep9EdgeEventERNS_12SweepContextEPNS_4EdgeEPNS_4NodeE @378
    _ZN3p2t5Sweep9EdgeEventERNS_12SweepContextERNS_5PointES4_PNS_8TriangleES4_ @379
    _ZN3p2t5Sweep9FillBasinERNS_12SweepContextERNS_4NodeE @380
    _ZN3p2t5Sweep9IsShallowERNS_12SweepContextERNS_4NodeE @381
    _ZN3p2t5SweepD1Ev @382
    _ZN3p2t5SweepD2Ev @383
    _ZN3p2t8Orient2dERKNS_5PointES2_S2_ @384
    _ZN3p2t8Triangle10DebugPrintEv @385
    _ZN3p2t8Triangle10NeighborCWERKNS_5PointE @386
    _ZN3p2t8Triangle11NeighborCCWERKNS_5PointE @387
    _ZN3p2t8Triangle12MarkNeighborEPNS_5PointES2_PS0_ @388
    _ZN3p2t8Triangle12MarkNeighborERS0_ @389
    _ZN3p2t8Triangle13ClearNeighborEPKS0_ @390
    _ZN3p2t8Triangle13OppositePointERS0_RKNS_5PointE @391
    _ZN3p2t8Triangle14ClearNeighborsEv @392
    _ZN3p2t8Triangle14NeighborAcrossERKNS_5PointE @393
    _ZN3p2t8Triangle16SetDelunayEdgeCWERKNS_5PointEb @394
    _ZN3p2t8Triangle17ClearDelunayEdgesEv @395
    _ZN3p2t8Triangle17SetDelunayEdgeCCWERKNS_5PointEb @396
    _ZN3p2t8Triangle19MarkConstrainedEdgeEPNS_5PointES2_ @397
    _ZN3p2t8Triangle19MarkConstrainedEdgeERNS_4EdgeE @398
    _ZN3p2t8Triangle19MarkConstrainedEdgeEi @399
    _ZN3p2t8Triangle20SetConstrainedEdgeCWERKNS_5PointEb @400
    _ZN3p2t8Triangle21SetConstrainedEdgeCCWERKNS_5PointEb @401
    _ZN3p2t8Triangle5ClearEv @402
    _ZN3p2t8Triangle7PointCWERKNS_5PointE @403
    _ZN3p2t8Triangle8LegalizeERNS_5PointE @404
    _ZN3p2t8Triangle8LegalizeERNS_5PointES2_ @405
    _ZN3p2t8Triangle8PointCCWERKNS_5PointE @406
    _ZN3p2t8TriangleC1ERNS_5PointES2_S2_ @407
    _ZN3p2t8TriangleC2ERNS_5PointES2_S2_ @408
    _ZN4Marc10ErrorState14get_last_errorEv @409
    _ZN4Marc10ErrorState8instanceEv @410
    _ZN4Marc10ErrorState9set_errorERKNSt7__cxx1112basic_stringIcSt11char_traitsIcESaIcEEE @411
    _ZN4Marc15ExportMarcSlice5CloseEv @412
    _ZN4Marc15ExportMarcSlice6convrtERKN6Slic3r9ExPolygonERSt6vectorINS_7PolygonESaIS6_EE @413
    _ZN4Marc15ExportMarcSlice6convrtERKSt6vectorIN6Slic3r4LineESaIS3_EERS1_INS_4LineESaIS8_EE @414
    _ZN4Marc15ExportMarcSlice6convrtERKSt6vectorIN6Slic3r5PointESaIS3_EERS1_INS_5PointESaIS8_EE @415
    _ZN4Marc15ExportMarcSlice6convrtERKSt6vectorIN6Slic3r7PolygonESaIS3_EERS1_INS_7PolygonESaIS8_EE @416
    _ZN4Marc15ExportMarcSlice6convrtERKSt6vectorIN6Slic3r7SurfaceESaIS3_EERS1_INS_7PolygonESaIS8_EE @417
    _ZN4Marc15ExportMarcSlice6convrtERKSt6vectorIN6Slic3r8PolylineESaIS3_EERS1_INS_8PolylineESaIS8_EE @418
    _ZN4Marc15ExportMarcSlice6convrtERKSt6vectorIN6Slic3r9ExPolygonESaIS3_EERS1_INS_7PolygonESaIS8_EE @419
    _ZN4Marc15ExportMarcSliceC1ERKNS_5PointE @420
    _ZN4Marc15ExportMarcSliceC1Ev @421
    _ZN4Marc15ExportMarcSliceC2ERKNS_5PointE @422
    _ZN4Marc15ExportMarcSliceC2Ev @423
    _ZN4Marc3SVG11draw_legendERKN6Slic3r5PointEPKcS6_ @424
    _ZN4Marc3SVG12draw_outlineERKN6Slic3r7PolygonENSt7__cxx1112basic_stringIcSt11char_traitsIcESaIcEEEd @425
    _ZN4Marc3SVG12draw_outlineERKN6Slic3r7SurfaceENSt7__cxx1112basic_stringIcSt11char_traitsIcESaIcEEESA_d @426
    _ZN4Marc3SVG12draw_outlineERKN6Slic3r9ExPolygonENSt7__cxx1112basic_stringIcSt11char_traitsIcESaIcEEESA_d @427
    _ZN4Marc3SVG12draw_outlineERKSt6vectorIN6Slic3r7PolygonESaIS3_EENSt7__cxx1112basic_stringIcSt11char_traitsIcESaIcEEEd @428
    _ZN4Marc3SVG12draw_outlineERKSt6vectorIN6Slic3r7SurfaceESaIS3_EENSt7__cxx1112basic_stringIcSt11char_traitsIcESaIcEEESD_d @429
    _ZN4Marc3SVG12draw_outlineERKSt6vectorIN6Slic3r9ExPolygonESaIS3_EENSt7__cxx1112basic_stringIcSt11char_traitsIcESaIcEEESD_d @430
    _ZN4Marc3SVG12draw_outlineERKSt6vectorIPN6Slic3r7SurfaceESaIS4_EENSt7__cxx1112basic_stringIcSt11char_traitsIcESaIcEEESE_d @431
    _ZN4Marc3SVG17export_expolygonsEPKcRKN6Slic3r11BoundingBoxERKSt6vectorINS3_9ExPolygonESaIS8_EENSt7__cxx1112basic_stringIcSt11char_traitsIcESaIcEEESI_d @432
    _ZN4Marc3SVG17layer_section_endEv @433
    _ZN4Marc3SVG19layer_section_startEPKc @434
    _ZN4Marc3SVG4drawERKN6Slic3r4LineENSt7__cxx1112basic_stringIcSt11char_traitsIcESaIcEEEd @435
    _ZN4Marc3SVG4drawERKN6Slic3r5PointENSt7__cxx1112basic_stringIcSt11char_traitsIcESaIcEEEx @436
    _ZN4Marc3SVG4drawERKN6Slic3r7PolygonENSt7__cxx1112basic_stringIcSt11char_traitsIcESaIcEEE @437
    _ZN4Marc3SVG4drawERKN6Slic3r7SurfaceENSt7__cxx1112basic_stringIcSt11char_traitsIcESaIcEEEf @438
    _ZN4Marc3SVG4drawERKN6Slic3r8PolylineENSt7__cxx1112basic_stringIcSt11char_traitsIcESaIcEEEd @439
    _ZN4Marc3SVG4drawERKN6Slic3r9ExPolygonENSt7__cxx1112basic_stringIcSt11char_traitsIcESaIcEEEf @440
    _ZN4Marc3SVG4drawERKN6Slic3r9ThickLineERKNSt7__cxx1112basic_stringIcSt11char_traitsIcESaIcEEESC_d @441
    _ZN4Marc3SVG4drawERKSt6vectorIN10ClipperLib8IntPointESaIS3_EEdNSt7__cxx1112basic_stringIcSt11char_traitsIcESaIcEEEd @442
    _ZN4Marc3SVG4drawERKSt6vectorIN6Slic3r13ThickPolylineESaIS3_EERKNSt7__cxx1112basic_stringIcSt11char_traitsIcESaIcEEESF_d @443
    _ZN4Marc3SVG4drawERKSt6vectorIN6Slic3r13ThickPolylineESaIS3_EERKNSt7__cxx1112basic_stringIcSt11char_traitsIcESaIcEEEd @444
    _ZN4Marc3SVG4drawERKSt6vectorIN6Slic3r16IntersectionLineESaIS3_EENSt7__cxx1112basic_stringIcSt11char_traitsIcESaIcEEE @445
    _ZN4Marc3SVG4drawERKSt6vectorIN6Slic3r4LineESaIS3_EENSt7__cxx1112basic_stringIcSt11char_traitsIcESaIcEEEd @446
    _ZN4Marc3SVG4drawERKSt6vectorIN6Slic3r5PointESaIS3_EENSt7__cxx1112basic_stringIcSt11char_traitsIcESaIcEEEx @447
    _ZN4Marc3SVG4drawERKSt6vectorIN6Slic3r7PolygonESaIS3_EENSt7__cxx1112basic_stringIcSt11char_traitsIcESaIcEEE @448
    _ZN4Marc3SVG4drawERKSt6vectorIN6Slic3r7SurfaceESaIS3_EENSt7__cxx1112basic_stringIcSt11char_traitsIcESaIcEEEf @449
    _ZN4Marc3SVG4drawERKSt6vectorIN6Slic3r8PolylineESaIS3_EENSt7__cxx1112basic_stringIcSt11char_traitsIcESaIcEEEd @450
    _ZN4Marc3SVG4drawERKSt6vectorIN6Slic3r9ExPolygonESaIS3_EENSt7__cxx1112basic_stringIcSt11char_traitsIcESaIcEEEf @451
    _ZN4Marc3SVG4drawERKSt6vectorIN6Slic3r9ThickLineESaIS3_EERKNSt7__cxx1112basic_stringIcSt11char_traitsIcESaIcEEESF_d @452
    _ZN4Marc3SVG4drawERKSt6vectorIPN6Slic3r7SurfaceESaIS4_EENSt7__cxx1112basic_stringIcSt11char_traitsIcESaIcEEEf @453
    _ZN4Marc3SVG4drawERKSt6vectorIS1_IN10ClipperLib8IntPointESaIS3_EESaIS5_EEdNSt7__cxx1112basic_stringIcSt11char_traitsIcESaIcEEEd @454
    _ZN4Marc3SVG4openEPKc @455
    _ZN4Marc3SVG4openEPKcRKN6Slic3r11BoundingBoxExb @456
    _ZN4Marc3SVG4pathERKNSt7__cxx1112basic_stringIcSt11char_traitsIcESaIcEEEbdf @457
    _ZN4Marc3SVG5CloseEv @458
    _ZN4Marc3SVG9draw_textERKN6Slic3r5PointEPKcS6_ @459
    _ZN4Marc6Logger3logERKNSt7__cxx1112basic_stringIcSt11char_traitsIcESaIcEEE @460
    _ZN4Marc6Logger4stopEv @461
    _ZN4Marc6Logger5startEv @462
    _ZN4Marc6Logger6workerEv @463
    _ZN4Marc6Logger8instanceEv @464
    _ZN4Marc6LoggerC1Ev @465
    _ZN4Marc6LoggerC2Ev @466
    _ZN4Marc6LoggerD1Ev @467
    _ZN4Marc6LoggerD2Ev @468
    _ZN4Marc7MarcAPI10print_helpEb @469
    _ZN4Marc7MarcAPI10setActionsERKSt6vectorINSt7__cxx1112basic_stringIcSt11char_traitsIcESaIcEEESaIS7_EE @470
    _ZN4Marc7MarcAPI10setConfigsERKSt6vectorINSt10filesystem7__cxx114pathESaIS4_EE @471
    _ZN4Marc7MarcAPI11updateModelEv @472
    _ZN4Marc7MarcAPI12export_modelEN6Slic3r2IO12ExportFormatE @473
    _ZN4Marc7MarcAPI12exportslasvgEv @474
    _ZN4Marc7MarcAPI12scale_to_fitEv @475
    _ZN4Marc7MarcAPI12volumeconfigENSt7__cxx1112basic_stringIcSt11char_traitsIcESaIcEEE @476
    _ZN4Marc7MarcAPI13around_centerEv @477
    _ZN4Marc7MarcAPI13exportSlmFileEv @478
    _ZN4Marc7MarcAPI13setTransformsERKSt6vectorINSt7__cxx1112basic_stringIcSt11char_traitsIcESaIcEEESaIS7_EE @479
    _ZN4Marc7MarcAPI14duplicate_gridEv @480
    _ZN4Marc7MarcAPI33center_model_objects_around_pointERKN6Slic3r6PointfE @481
    _ZN4Marc7MarcAPI34duplicate_model_objects_within_bedEv @482
    _ZN4Marc7MarcAPI3cutENSt7__cxx1112basic_stringIcSt11char_traitsIcESaIcEEEfRSt6vectorIN6Slic3r5ModelESaIS9_EE @483
    _ZN4Marc7MarcAPI4infoEv @484
    _ZN4Marc7MarcAPI5printEv @485
    _ZN4Marc7MarcAPI5scaleERKf @486
    _ZN4Marc7MarcAPI5splitEv @487
    _ZN4Marc7MarcAPI6repairEv @488
    _ZN4Marc7MarcAPI7alignXYERN6Slic3r6PointfE @489
    _ZN4Marc7MarcAPI7rotateXERKf @490
    _ZN4Marc7MarcAPI7rotateYERKf @491
    _ZN4Marc7MarcAPI7rotateZERKf @492
    _ZN4Marc7MarcAPI8cut_gridENSt7__cxx1112basic_stringIcSt11char_traitsIcESaIcEEERSt6vectorIN6Slic3r5ModelESaIS9_EE @493
    _ZN4Marc7MarcAPI9conFigureEv @494
    _ZN4Marc7MarcAPI9duplicateEv @495
    _ZN4Marc7MarcAPI9save_confEv @496
    _ZN4Marc7MarcAPI9setModelsERKSt6vectorINSt10filesystem7__cxx114pathESaIS4_EE @497
    _ZN4Marc8MarcFile11generateSvgENSt7__cxx1112basic_stringIcSt11char_traitsIcESaIcEEE @498
    _ZN4Marc8MarcFile11writeToFileERKNSt7__cxx1112basic_stringIcSt11char_traitsIcESaIcEEE @499
    _ZN4Marc8MarcFile12readFromFileERKNSt7__cxx1112basic_stringIcSt11char_traitsIcESaIcEEE @500
    _ZN4Marc8MarcFile13write_sla_svgEPKN6Slic3r8SLAPrintE @501
    _ZN4Marc8MarcFile19generateSVGForLayerERKNS_5LayerERKNSt7__cxx1112basic_stringIcSt11char_traitsIcESaIcEEE @502
    _ZN4Marc8MarcFile22generateSVGForMarcFileERKNSt7__cxx1112basic_stringIcSt11char_traitsIcESaIcEEE @503
    _ZN4Marc8SlmPrint14export_slm_svgEv @504
    _ZN4Marc8SlmPrint14process_entityEPKN6Slic3r15ExtrusionEntityEPNS_3SVGE @505
    _ZN4Marc8SlmPrint16export_slm_sliceEv @506
    _ZN4Marc8SlmPrint16write_svg_layersEv @507
    _ZN4Marc8SlmPrintC1Ev @508
    _ZN4Marc8SlmPrintC2Ev @509
    _ZN4Marc9escapeXMLERKNSt7__cxx1112basic_stringIcSt11char_traitsIcESaIcEEE @510
    _ZN5boost10conversion6detail14throw_bad_castINSt7__cxx1112basic_stringIcSt11char_traitsIcESaIcEEEfEEvv @511
    _ZN5boost10conversion6detail14throw_bad_castIdNSt7__cxx1112basic_stringIcSt11char_traitsIcESaIcEEEEEvv @512
    _ZN5boost10error_infoINS_27tag_original_exception_typeEPKSt9type_infoED0Ev @513
    _ZN5boost10error_infoINS_27tag_original_exception_typeEPKSt9type_infoED1Ev @514
    _ZN5boost10filesystem10emit_errorEmPNS_6system10error_codeEPKc @515
    _ZN5boost10filesystem10emit_errorEmRKNS0_4pathEPNS_6system10error_codeEPKc @516
    _ZN5boost10filesystem10emit_errorEmRKNS0_4pathES3_PNS_6system10error_codeEPKc @517
    _ZN5boost10filesystem16filesystem_error14get_empty_pathEv @518
    _ZN5boost10filesystem16filesystem_errorC1EPKcNS_6system10error_codeE @519
    _ZN5boost10filesystem16filesystem_errorC1EPKcRKNS0_4pathENS_6system10error_codeE @520
    _ZN5boost10filesystem16filesystem_errorC1EPKcRKNS0_4pathES6_NS_6system10error_codeE @521
    _ZN5boost10filesystem16filesystem_errorC1ERKNSt7__cxx1112basic_stringIcSt11char_traitsIcESaIcEEENS_6system10error_codeE @522
    _ZN5boost10filesystem16filesystem_errorC1ERKNSt7__cxx1112basic_stringIcSt11char_traitsIcESaIcEEERKNS0_4pathENS_6system10error_codeE @523
    _ZN5boost10filesystem16filesystem_errorC1ERKNSt7__cxx1112basic_stringIcSt11char_traitsIcESaIcEEERKNS0_4pathESC_NS_6system10error_codeE @524
    _ZN5boost10filesystem16filesystem_errorC1ERKS1_ @525
    _ZN5boost10filesystem16filesystem_errorC2EPKcNS_6system10error_codeE @526
    _ZN5boost10filesystem16filesystem_errorC2EPKcRKNS0_4pathENS_6system10error_codeE @527
    _ZN5boost10filesystem16filesystem_errorC2EPKcRKNS0_4pathES6_NS_6system10error_codeE @528
    _ZN5boost10filesystem16filesystem_errorC2ERKNSt7__cxx1112basic_stringIcSt11char_traitsIcESaIcEEENS_6system10error_codeE @529
    _ZN5boost10filesystem16filesystem_errorC2ERKNSt7__cxx1112basic_stringIcSt11char_traitsIcESaIcEEERKNS0_4pathENS_6system10error_codeE @530
    _ZN5boost10filesystem16filesystem_errorC2ERKNSt7__cxx1112basic_stringIcSt11char_traitsIcESaIcEEERKNS0_4pathESC_NS_6system10error_codeE @531
    _ZN5boost10filesystem16filesystem_errorC2ERKS1_ @532
    _ZN5boost10filesystem16filesystem_errorD0Ev @533
    _ZN5boost10filesystem16filesystem_errorD1Ev @534
    _ZN5boost10filesystem16filesystem_errorD2Ev @535
    _ZN5boost10filesystem16filesystem_erroraSERKS1_ @536
    _ZN5boost10filesystem22codecvt_error_categoryEv @537
    _ZN5boost10filesystem4path16replace_filenameERKS1_ @538
    _ZN5boost10filesystem4path25remove_trailing_separatorEv @539
    _ZN5boost10filesystem4path39remove_filename_and_trailing_separatorsEv @540
    _ZN5boost10filesystem4path5imbueERKSt6locale @541
    _ZN5boost10filesystem4path7codecvtEv @542
    _ZN5boost10filesystem6detail10remove_allERKNS0_4pathEPNS_6system10error_codeE @543
    _ZN5boost10filesystem6detail11absolute_v3ERKNS0_4pathES4_PNS_6system10error_codeE @544
    _ZN5boost10filesystem6detail11absolute_v4ERKNS0_4pathES4_PNS_6system10error_codeE @545
    _ZN5boost10filesystem6detail11dir_itr_impD1Ev @546
    _ZN5boost10filesystem6detail11dir_itr_impD2Ev @547
    _ZN5boost10filesystem6detail11dir_itr_impdlEPv @548
    _ZN5boost10filesystem6detail11dir_itr_impdlEPvy @549
    _ZN5boost10filesystem6detail11dir_itr_impnwEyy @550
    _ZN5boost10filesystem6detail11path_traits7convertEPKcS4_RNSt7__cxx1112basic_stringIwSt11char_traitsIwESaIwEEEPKSt7codecvtIwc9_MbstatetE @551
    _ZN5boost10filesystem6detail11path_traits7convertEPKwS4_RNSt7__cxx1112basic_stringIcSt11char_traitsIcESaIcEEEPKSt7codecvtIwc9_MbstatetE @552
    _ZN5boost10filesystem6detail11permissionsERKNS0_4pathENS0_5permsEPNS_6system10error_codeE @553
    _ZN5boost10filesystem6detail11resize_fileERKNS0_4pathEyPNS_6system10error_codeE @554
    _ZN5boost10filesystem6detail12canonical_v3ERKNS0_4pathES4_PNS_6system10error_codeE @555
    _ZN5boost10filesystem6detail12canonical_v4ERKNS0_4pathES4_PNS_6system10error_codeE @556
    _ZN5boost10filesystem6detail12copy_symlinkERKNS0_4pathES4_PNS_6system10error_codeE @557
    _ZN5boost10filesystem6detail12current_pathEPNS_6system10error_codeE @558
    _ZN5boost10filesystem6detail12current_pathERKNS0_4pathEPNS_6system10error_codeE @559
    _ZN5boost10filesystem6detail12dot_dot_pathEv @560
    _ZN5boost10filesystem6detail12initial_pathEPNS_6system10error_codeE @561
    _ZN5boost10filesystem6detail12read_symlinkERKNS0_4pathEPNS_6system10error_codeE @562
    _ZN5boost10filesystem6detail13creation_timeERKNS0_4pathEPNS_6system10error_codeE @563
    _ZN5boost10filesystem6detail13equivalent_v3ERKNS0_4pathES4_PNS_6system10error_codeE @564
    _ZN5boost10filesystem6detail13equivalent_v4ERKNS0_4pathES4_PNS_6system10error_codeE @565
    _ZN5boost10filesystem6detail14create_symlinkERKNS0_4pathES4_PNS_6system10error_codeE @566
    _ZN5boost10filesystem6detail14symlink_statusERKNS0_4pathEPNS_6system10error_codeE @567
    _ZN5boost10filesystem6detail15hard_link_countERKNS0_4pathEPNS_6system10error_codeE @568
    _ZN5boost10filesystem6detail15last_write_timeERKNS0_4pathEPNS_6system10error_codeE @569
    _ZN5boost10filesystem6detail15last_write_timeERKNS0_4pathExPNS_6system10error_codeE @570
    _ZN5boost10filesystem6detail15path_algorithms10compare_v3ERKNS0_4pathES5_ @571
    _ZN5boost10filesystem6detail15path_algorithms10compare_v4ERKNS0_4pathES5_ @572
    _ZN5boost10filesystem6detail15path_algorithms11filename_v3ERKNS0_4pathE @573
    _ZN5boost10filesystem6detail15path_algorithms11filename_v4ERKNS0_4pathE @574
    _ZN5boost10filesystem6detail15path_algorithms12decrement_v3ERNS0_11path_detail13path_iteratorE @575
    _ZN5boost10filesystem6detail15path_algorithms12decrement_v4ERNS0_11path_detail13path_iteratorE @576
    _ZN5boost10filesystem6detail15path_algorithms12extension_v3ERKNS0_4pathE @577
    _ZN5boost10filesystem6detail15path_algorithms12increment_v3ERNS0_11path_detail13path_iteratorE @578
    _ZN5boost10filesystem6detail15path_algorithms12increment_v4ERNS0_11path_detail13path_iteratorE @579
    _ZN5boost10filesystem6detail15path_algorithms14lex_compare_v3ENS0_11path_detail13path_iteratorERKS4_S4_S6_ @580
    _ZN5boost10filesystem6detail15path_algorithms14lex_compare_v4ENS0_11path_detail13path_iteratorERKS4_S4_S6_ @581
    _ZN5boost10filesystem6detail15path_algorithms15generic_path_v3ERKNS0_4pathE @582
    _ZN5boost10filesystem6detail15path_algorithms15generic_path_v4ERKNS0_4pathE @583
    _ZN5boost10filesystem6detail15path_algorithms17make_preferred_v3ERNS0_4pathE @584
    _ZN5boost10filesystem6detail15path_algorithms17make_preferred_v4ERNS0_4pathE @585
    _ZN5boost10filesystem6detail15path_algorithms18find_relative_pathERKNS0_4pathE @586
    _ZN5boost10filesystem6detail15path_algorithms18remove_filename_v3ERNS0_4pathE @587
    _ZN5boost10filesystem6detail15path_algorithms18remove_filename_v4ERNS0_4pathE @588
    _ZN5boost10filesystem6detail15path_algorithms19find_root_directoryERKNS0_4pathE @589
    _ZN5boost10filesystem6detail15path_algorithms19find_root_name_sizeERKNS0_4pathE @590
    _ZN5boost10filesystem6detail15path_algorithms19find_root_path_sizeERKNS0_4pathE @591
    _ZN5boost10filesystem6detail15path_algorithms19lexically_normal_v3ERKNS0_4pathE @592
    _ZN5boost10filesystem6detail15path_algorithms19lexically_normal_v4ERKNS0_4pathE @593
    _ZN5boost10filesystem6detail15path_algorithms20replace_extension_v3ERNS0_4pathERKS3_ @594
    _ZN5boost10filesystem6detail15path_algorithms20replace_extension_v4ERNS0_4pathERKS3_ @595
    _ZN5boost10filesystem6detail15path_algorithms21find_filename_v4_sizeERKNS0_4pathE @596
    _ZN5boost10filesystem6detail15path_algorithms21find_parent_path_sizeERKNS0_4pathE @597
    _ZN5boost10filesystem6detail15path_algorithms22find_extension_v4_sizeERKNS0_4pathE @598
    _ZN5boost10filesystem6detail15path_algorithms25erase_redundant_separatorERNS0_4pathEy @599
    _ZN5boost10filesystem6detail15path_algorithms26append_separator_if_neededERNS0_4pathE @600
    _ZN5boost10filesystem6detail15path_algorithms7stem_v3ERKNS0_4pathE @601
    _ZN5boost10filesystem6detail15path_algorithms7stem_v4ERKNS0_4pathE @602
    _ZN5boost10filesystem6detail15path_algorithms9append_v3ERNS0_4pathEPKwS6_ @603
    _ZN5boost10filesystem6detail15path_algorithms9append_v4ERNS0_4pathEPKwS6_ @604
    _ZN5boost10filesystem6detail15system_completeERKNS0_4pathEPNS_6system10error_codeE @605
    _ZN5boost10filesystem6detail16create_directoryERKNS0_4pathEPS3_PNS_6system10error_codeE @606
    _ZN5boost10filesystem6detail16create_hard_linkERKNS0_4pathES4_PNS_6system10error_codeE @607
    _ZN5boost10filesystem6detail16status_by_handleEPvRKNS0_4pathEPNS_6system10error_codeE @608
    _ZN5boost10filesystem6detail18create_directoriesERKNS0_4pathEPNS_6system10error_codeE @609
    _ZN5boost10filesystem6detail18is_empty_directoryEONS_5scope15unique_resourceIPvNS1_14handle_deleterENS1_22handle_resource_traitsEEERKNS0_4pathEPNS_6system10error_codeE @610
    _ZN5boost10filesystem6detail18nt_create_file_apiE @611 DATA
    _ZN5boost10filesystem6detail19temp_directory_pathEPNS_6system10error_codeE @612
    _ZN5boost10filesystem6detail19weakly_canonical_v3ERKNS0_4pathES4_PNS_6system10error_codeE @613
    _ZN5boost10filesystem6detail19weakly_canonical_v4ERKNS0_4pathES4_PNS_6system10error_codeE @614
    _ZN5boost10filesystem6detail20windows_file_codecvtD0Ev @615
    _ZN5boost10filesystem6detail20windows_file_codecvtD1Ev @616
    _ZN5boost10filesystem6detail24create_directory_symlinkERKNS0_4pathES4_PNS_6system10error_codeE @617
    _ZN5boost10filesystem6detail24nt_create_file_handle_atERNS_5scope15unique_resourceIPvNS1_14handle_deleterENS1_22handle_resource_traitsEEES4_RKNS0_4pathEmmmmm @618
    _ZN5boost10filesystem6detail27get_reparse_point_tag_ioctlEPvRKNS0_4pathEPNS_6system10error_codeE @619
    _ZN5boost10filesystem6detail27nt_query_directory_file_apiE @620 DATA
    _ZN5boost10filesystem6detail28directory_iterator_constructERNS0_18directory_iteratorERKNS0_4pathENS0_17directory_optionsEPNS1_25directory_iterator_paramsEPNS_6system10error_codeE @621
    _ZN5boost10filesystem6detail28directory_iterator_incrementERNS0_18directory_iteratorEPNS_6system10error_codeE @622
    _ZN5boost10filesystem6detail28init_directory_iterator_implEv @623
    _ZN5boost10filesystem6detail32possible_large_file_size_supportEv @624
    _ZN5boost10filesystem6detail32recursive_directory_iterator_popERNS0_28recursive_directory_iteratorEPNS_6system10error_codeE @625
    _ZN5boost10filesystem6detail37get_file_information_by_handle_ex_apiE @626 DATA
    _ZN5boost10filesystem6detail38recursive_directory_iterator_constructERNS0_28recursive_directory_iteratorERKNS0_4pathENS0_17directory_optionsEPNS_6system10error_codeE @627
    _ZN5boost10filesystem6detail38recursive_directory_iterator_incrementERNS0_28recursive_directory_iteratorEPNS_6system10error_codeE @628
    _ZN5boost10filesystem6detail4copyERKNS0_4pathES4_NS0_12copy_optionsEPNS_6system10error_codeE @629
    _ZN5boost10filesystem6detail5spaceERKNS0_4pathEPNS_6system10error_codeE @630
    _ZN5boost10filesystem6detail6removeERKNS0_4pathEPNS_6system10error_codeE @631
    _ZN5boost10filesystem6detail6renameERKNS0_4pathES4_PNS_6system10error_codeE @632
    _ZN5boost10filesystem6detail6statusERKNS0_4pathEPNS_6system10error_codeE @633
    _ZN5boost10filesystem6detail8dot_pathEv @634
    _ZN5boost10filesystem6detail8is_emptyERKNS0_4pathEPNS_6system10error_codeE @635
    _ZN5boost10filesystem6detail8relativeERKNS0_4pathES4_PNS_6system10error_codeE @636
    _ZN5boost10filesystem6detail9copy_fileERKNS0_4pathES4_NS0_12copy_optionsEPNS_6system10error_codeE @637
    _ZN5boost10filesystem6detail9file_sizeERKNS0_4pathEPNS_6system10error_codeE @638
    _ZN5boost10function_nINS_14iterator_rangeIN9__gnu_cxx17__normal_iteratorIPcNSt7__cxx1112basic_stringIcSt11char_traitsIcESaIcEEEEEEEJSB_SB_EE13assign_to_ownERKSD_ @639
    _ZN5boost10function_nIvJPN6Slic3r17SurfaceCollectionEEE13assign_to_ownERKS4_ @640
    _ZN5boost10function_nIvJPN6Slic3r5LayerEEE13assign_to_ownERKS4_ @641
    _ZN5boost10function_nIvJyEE13assign_to_ownERKS1_ @642
    _ZN5boost10lock_errorD0Ev @643
    _ZN5boost10lock_errorD1Ev @644
    _ZN5boost10wrapexceptINS_10lock_errorEED0Ev @645
    _ZN5boost10wrapexceptINS_10lock_errorEED1Ev @646
    _ZN5boost10wrapexceptINS_13property_tree10ini_parser16ini_parser_errorEED0Ev @647
    _ZN5boost10wrapexceptINS_13property_tree10ini_parser16ini_parser_errorEED1Ev @648
    _ZN5boost10wrapexceptINS_16bad_lexical_castEED0Ev @649
    _ZN5boost10wrapexceptINS_16bad_lexical_castEED1Ev @650
    _ZN5boost10wrapexceptINS_17bad_function_callEED0Ev @651
    _ZN5boost10wrapexceptINS_17bad_function_callEED1Ev @652
    _ZN5boost10wrapexceptINS_21thread_resource_errorEED0Ev @653
    _ZN5boost10wrapexceptINS_21thread_resource_errorEED1Ev @654
    _ZN5boost10wrapexceptISt9bad_allocED0Ev @655
    _ZN5boost10wrapexceptISt9bad_allocED1Ev @656
    _ZN5boost11this_thread18interruptible_waitEPvRKNS_6detail23mono_platform_timepointE @657
    _ZN5boost11this_thread18interruption_pointEv @658
    _ZN5boost11this_thread20disable_interruptionC1Ev @659
    _ZN5boost11this_thread20disable_interruptionC2Ev @660
    _ZN5boost11this_thread20disable_interruptionD1Ev @661
    _ZN5boost11this_thread20disable_interruptionD2Ev @662
    _ZN5boost11this_thread20interruption_enabledEv @663
    _ZN5boost11this_thread20restore_interruptionC1ERNS0_20disable_interruptionE @664
    _ZN5boost11this_thread20restore_interruptionC2ERNS0_20disable_interruptionE @665
    _ZN5boost11this_thread20restore_interruptionD1Ev @666
    _ZN5boost11this_thread20restore_interruptionD2Ev @667
    _ZN5boost11this_thread21no_interruption_point22non_interruptible_waitEPvRKNS_6detail23mono_platform_timepointE @668
    _ZN5boost11this_thread22interruption_requestedEv @669
    _ZN5boost11this_thread5yieldEv @670
    _ZN5boost11this_thread6get_idEv @671
    _ZN5boost12shared_mutex13unlock_sharedEv @672
    _ZN5boost12shared_mutex6unlockEv @673
    _ZN5boost12sp_adl_block21intrusive_ptr_releaseINS_10filesystem16filesystem_error4implENS0_19thread_safe_counterEEEvPKNS0_21intrusive_ref_counterIT_T0_EE @674
    _ZN5boost12sp_adl_block21intrusive_ptr_releaseINS_10filesystem6detail11dir_itr_impENS0_19thread_safe_counterEEEvPKNS0_21intrusive_ref_counterIT_T0_EE @675
    _ZN5boost12sp_adl_block21intrusive_ptr_releaseINS_10filesystem6detail17recur_dir_itr_impENS0_19thread_safe_counterEEEvPKNS0_21intrusive_ref_counterIT_T0_EE @676
    _ZN5boost12thread_group8join_allEv @677
    _ZN5boost12thread_groupD1Ev @678
    _ZN5boost13property_tree10ini_parser16ini_parser_errorD0Ev @679
    _ZN5boost13property_tree10ini_parser16ini_parser_errorD1Ev @680
    _ZN5boost13property_tree10ini_parser8read_iniINS0_11basic_ptreeINSt7__cxx1112basic_stringIcSt11char_traitsIcESaIcEEES9_St4lessIS9_EEEEEvRSt13basic_istreamINT_8key_type10value_typeES6_ISG_EERSE_ @681
    _ZN5boost13property_tree11basic_ptreeINSt7__cxx1112basic_stringIcSt11char_traitsIcESaIcEEES7_St4lessIS7_EEC1ERKSA_ @682
    _ZN5boost13property_tree11basic_ptreeINSt7__cxx1112basic_stringIcSt11char_traitsIcESaIcEEES7_St4lessIS7_EEC1Ev @683
    _ZN5boost13property_tree11basic_ptreeINSt7__cxx1112basic_stringIcSt11char_traitsIcESaIcEEES7_St4lessIS7_EED1Ev @684
    _ZN5boost13property_tree11ptree_errorD0Ev @685
    _ZN5boost13property_tree11ptree_errorD1Ev @686
    _ZN5boost13property_tree17file_parser_error11format_whatERKNSt7__cxx1112basic_stringIcSt11char_traitsIcESaIcEEES9_m @687
    _ZN5boost13property_tree17file_parser_errorC2ERKNSt7__cxx1112basic_stringIcSt11char_traitsIcESaIcEEES9_m @688
    _ZN5boost13property_tree17file_parser_errorD0Ev @689
    _ZN5boost13property_tree17file_parser_errorD1Ev @690
    _ZN5boost13property_tree17file_parser_errorD2Ev @691
    _ZN5boost13property_tree6detail4trimINSt7__cxx1112basic_stringIcSt11char_traitsIcESaIcEEEEET_RKS9_RKSt6locale @692
    _ZN5boost14on_thread_exitEv @693
    _ZN5boost15on_process_exitEv @694
    _ZN5boost15on_thread_enterEv @695
    _ZN5boost15throw_exceptionINS_10lock_errorEEEvRKT_ @696
    _ZN5boost15throw_exceptionINS_13property_tree10ini_parser16ini_parser_errorEEEvRKT_RKNS_15source_locationE @697
    _ZN5boost15throw_exceptionINS_16bad_lexical_castEEEvRKT_ @698
    _ZN5boost15throw_exceptionINS_17bad_function_callEEEvRKT_ @699
    _ZN5boost15throw_exceptionINS_21thread_resource_errorEEEvRKT_ @700
    _ZN5boost16bad_lexical_castD0Ev @701
    _ZN5boost16bad_lexical_castD1Ev @702
    _ZN5boost16exception_detail10bad_alloc_D0Ev @703
    _ZN5boost16exception_detail10bad_alloc_D1Ev @704
    _ZN5boost16exception_detail10bad_alloc_D2Ev @705
    _ZN5boost16exception_detail10clone_implINS0_10bad_alloc_EED0Ev @706
    _ZN5boost16exception_detail10clone_implINS0_10bad_alloc_EED1Ev @707
    _ZN5boost16exception_detail10clone_implINS0_14bad_exception_EED0Ev @708
    _ZN5boost16exception_detail10clone_implINS0_14bad_exception_EED1Ev @709
    _ZN5boost16exception_detail14bad_exception_D0Ev @710
    _ZN5boost16exception_detail14bad_exception_D1Ev @711
    _ZN5boost16exception_detail14bad_exception_D2Ev @712
    _ZN5boost16exception_detail20copy_boost_exceptionEPNS_9exceptionEPKS1_ @713
    _ZN5boost16exception_detail25error_info_container_impl3setERKNS_10shared_ptrINS0_15error_info_baseEEERKNS0_10type_info_E @714
    _ZN5boost16exception_detail27get_static_exception_objectINS0_10bad_alloc_EEENS_13exception_ptrEv @715
    _ZN5boost16exception_detail27get_static_exception_objectINS0_14bad_exception_EEENS_13exception_ptrEv @716
    _ZN5boost16exception_detail37exception_ptr_static_exception_objectINS0_10bad_alloc_EE1eE @717 DATA
    _ZN5boost16exception_detail37exception_ptr_static_exception_objectINS0_14bad_exception_EE1eE @718 DATA
    _ZN5boost16on_process_enterEv @719
    _ZN5boost16thread_exceptionC2EiPKc @720
    _ZN5boost16thread_exceptionD0Ev @721
    _ZN5boost16thread_exceptionD1Ev @722
    _ZN5boost17bad_function_callD0Ev @723
    _ZN5boost17bad_function_callD1Ev @724
    _ZN5boost21thread_resource_errorD0Ev @725
    _ZN5boost21thread_resource_errorD1Ev @726
    _ZN5boost23tss_cleanup_implementedEv @727
    _ZN5boost25notify_all_at_thread_exitERNS_18condition_variableENS_11unique_lockINS_5mutexEEE @728
    _ZN5boost4core8snprintfEPcyPKcz @729
    _ZN5boost6detail11thread_dataINS_3_bi6bind_tIvPFvPSt5queueIPN6Slic3r17SurfaceCollectionESt5dequeIS7_SaIS7_EEEPNS_5mutexENS_8functionIFvS7_EEEENS2_4listIJNS2_5valueISC_EENSL_ISE_EENSL_ISH_EEEEEEEE3runEv @730
    _ZN5boost6detail11thread_dataINS_3_bi6bind_tIvPFvPSt5queueIPN6Slic3r17SurfaceCollectionESt5dequeIS7_SaIS7_EEEPNS_5mutexENS_8functionIFvS7_EEEENS2_4listIJNS2_5valueISC_EENSL_ISE_EENSL_ISH_EEEEEEEED0Ev @731
    _ZN5boost6detail11thread_dataINS_3_bi6bind_tIvPFvPSt5queueIPN6Slic3r17SurfaceCollectionESt5dequeIS7_SaIS7_EEEPNS_5mutexENS_8functionIFvS7_EEEENS2_4listIJNS2_5valueISC_EENSL_ISE_EENSL_ISH_EEEEEEEED1Ev @732
    _ZN5boost6detail11thread_dataINS_3_bi6bind_tIvPFvPSt5queueIPN6Slic3r5LayerESt5dequeIS7_SaIS7_EEEPNS_5mutexENS_8functionIFvS7_EEEENS2_4listIJNS2_5valueISC_EENSL_ISE_EENSL_ISH_EEEEEEEE3runEv @733
    _ZN5boost6detail11thread_dataINS_3_bi6bind_tIvPFvPSt5queueIPN6Slic3r5LayerESt5dequeIS7_SaIS7_EEEPNS_5mutexENS_8functionIFvS7_EEEENS2_4listIJNS2_5valueISC_EENSL_ISE_EENSL_ISH_EEEEEEEED0Ev @734
    _ZN5boost6detail11thread_dataINS_3_bi6bind_tIvPFvPSt5queueIPN6Slic3r5LayerESt5dequeIS7_SaIS7_EEEPNS_5mutexENS_8functionIFvS7_EEEENS2_4listIJNS2_5valueISC_EENSL_ISE_EENSL_ISH_EEEEEEEED1Ev @735
    _ZN5boost6detail11thread_dataINS_3_bi6bind_tIvPFvPSt5queueIiSt5dequeIiSaIiEEEPNS_5mutexENS_8functionIFviEEEENS2_4listIJNS2_5valueIS9_EENSI_ISB_EENSI_ISE_EEEEEEEE3runEv @736
    _ZN5boost6detail11thread_dataINS_3_bi6bind_tIvPFvPSt5queueIiSt5dequeIiSaIiEEEPNS_5mutexENS_8functionIFviEEEENS2_4listIJNS2_5valueIS9_EENSI_ISB_EENSI_ISE_EEEEEEEED0Ev @737
    _ZN5boost6detail11thread_dataINS_3_bi6bind_tIvPFvPSt5queueIiSt5dequeIiSaIiEEEPNS_5mutexENS_8functionIFviEEEENS2_4listIJNS2_5valueIS9_EENSI_ISB_EENSI_ISE_EEEEEEEED1Ev @738
    _ZN5boost6detail11thread_dataINS_3_bi6bind_tIvPFvPSt5queueIySt5dequeIySaIyEEEPNS_5mutexENS_8functionIFvyEEEENS2_4listIJNS2_5valueIS9_EENSI_ISB_EENSI_ISE_EEEEEEEE3runEv @739
    _ZN5boost6detail11thread_dataINS_3_bi6bind_tIvPFvPSt5queueIySt5dequeIySaIyEEEPNS_5mutexENS_8functionIFvyEEEENS2_4listIJNS2_5valueIS9_EENSI_ISB_EENSI_ISE_EEEEEEEED0Ev @740
    _ZN5boost6detail11thread_dataINS_3_bi6bind_tIvPFvPSt5queueIySt5dequeIySaIyEEEPNS_5mutexENS_8functionIFvyEEEENS2_4listIJNS2_5valueIS9_EENSI_ISB_EENSI_ISE_EEEEEEEED1Ev @741
    _ZN5boost6detail12get_tss_dataEPKv @742
    _ZN5boost6detail12set_tss_dataEPKvPFvPFvPvES3_ES5_S3_b @743
    _ZN5boost6detail12shared_stateIvE15do_continuationERNS_11unique_lockINS_5mutexEEE @744
    _ZN5boost6detail13find_tss_dataEPKv @745
    _ZN5boost6detail14erase_tss_nodeEPKv @746
    _ZN5boost6detail15sp_counted_base7destroyEv @747
    _ZN5boost6detail15sp_counted_base7releaseEv @748
    _ZN5boost6detail16add_new_tss_nodeEPKvPFvPFvPvES3_ES5_S3_ @749
    _ZN5boost6detail16basic_pointerbufIcSt15basic_streambufIcSt11char_traitsIcEEE6setbufEPcx @750
    _ZN5boost6detail16basic_pointerbufIcSt15basic_streambufIcSt11char_traitsIcEEE7seekoffExSt12_Ios_SeekdirSt13_Ios_Openmode @751
    _ZN5boost6detail16basic_pointerbufIcSt15basic_streambufIcSt11char_traitsIcEEE7seekposESt4fposI9_MbstatetESt13_Ios_Openmode @752
    _ZN5boost6detail16thread_data_base25notify_all_at_thread_exitEPNS_18condition_variableEPNS_5mutexE @753
    _ZN5boost6detail16thread_data_baseD0Ev @754
    _ZN5boost6detail16thread_data_baseD1Ev @755
    _ZN5boost6detail16thread_data_baseD2Ev @756
    _ZN5boost6detail17basic_timed_mutex4lockEv @757
    _ZN5boost6detail17basic_timed_mutex6unlockEv @758
    _ZN5boost6detail17basic_timed_mutex7destroyEv @759
    _ZN5boost6detail17sp_counted_impl_pINS_16exception_detail10clone_implINS2_10bad_alloc_EEEE11get_deleterERKSt9type_info @760
    _ZN5boost6detail17sp_counted_impl_pINS_16exception_detail10clone_implINS2_10bad_alloc_EEEE17get_local_deleterERKSt9type_info @761
    _ZN5boost6detail17sp_counted_impl_pINS_16exception_detail10clone_implINS2_10bad_alloc_EEEE19get_untyped_deleterEv @762
    _ZN5boost6detail17sp_counted_impl_pINS_16exception_detail10clone_implINS2_10bad_alloc_EEEE7disposeEv @763
    _ZN5boost6detail17sp_counted_impl_pINS_16exception_detail10clone_implINS2_10bad_alloc_EEEED0Ev @764
    _ZN5boost6detail17sp_counted_impl_pINS_16exception_detail10clone_implINS2_10bad_alloc_EEEED1Ev @765
    _ZN5boost6detail17sp_counted_impl_pINS_16exception_detail10clone_implINS2_14bad_exception_EEEE11get_deleterERKSt9type_info @766
    _ZN5boost6detail17sp_counted_impl_pINS_16exception_detail10clone_implINS2_14bad_exception_EEEE17get_local_deleterERKSt9type_info @767
    _ZN5boost6detail17sp_counted_impl_pINS_16exception_detail10clone_implINS2_14bad_exception_EEEE19get_untyped_deleterEv @768
    _ZN5boost6detail17sp_counted_impl_pINS_16exception_detail10clone_implINS2_14bad_exception_EEEE7disposeEv @769
    _ZN5boost6detail17sp_counted_impl_pINS_16exception_detail10clone_implINS2_14bad_exception_EEEED0Ev @770
    _ZN5boost6detail17sp_counted_impl_pINS_16exception_detail10clone_implINS2_14bad_exception_EEEED1Ev @771
    _ZN5boost6detail17sp_counted_impl_pINS_16exception_detail15error_info_baseEE11get_deleterERKSt9type_info @772
    _ZN5boost6detail17sp_counted_impl_pINS_16exception_detail15error_info_baseEE17get_local_deleterERKSt9type_info @773
    _ZN5boost6detail17sp_counted_impl_pINS_16exception_detail15error_info_baseEE19get_untyped_deleterEv @774
    _ZN5boost6detail17sp_counted_impl_pINS_16exception_detail15error_info_baseEE7disposeEv @775
    _ZN5boost6detail17sp_counted_impl_pINS_16exception_detail15error_info_baseEED0Ev @776
    _ZN5boost6detail17sp_counted_impl_pINS_16exception_detail15error_info_baseEED1Ev @777
    _ZN5boost6detail20rollback_once_regionERNS_9once_flagERNS0_12once_contextE @778
    _ZN5boost6detail21intrusive_ptr_releaseEPNS0_16thread_data_baseE @779
    _ZN5boost6detail23get_current_thread_dataEv @780
    _ZN5boost6detail24add_thread_exit_functionEPNS0_25thread_exit_function_baseE @781
    _ZN5boost6detail5lcast16to_target_streamIcSt11char_traitsIcEE20shr_using_base_classIdEEbRT_ @782
    _ZN5boost6detail5lcast16to_target_streamIcSt11char_traitsIcEE20shr_using_base_classIfEEbRT_ @783
    _ZN5boost6detail5lcast17basic_unlockedbufISt15basic_streambufIcSt11char_traitsIcEEcED0Ev @784
    _ZN5boost6detail5lcast17basic_unlockedbufISt15basic_streambufIcSt11char_traitsIcEEcED1Ev @785
    _ZN5boost6detail8function15functor_managerINS_3_bi6bind_tINS3_11unspecifiedENS_4_mfi2mfIMN6Slic3r15SupportMaterialEFviNS8_16toolpaths_paramsEEvS9_JiSA_EEENS3_4listIJNS3_5valueIPS9_EENS_3argILi1EEENSF_ISA_EEEEEEEE6manageERKNS1_15function_bufferERSO_NS1_30functor_manager_operation_typeE @786
    _ZN5boost6detail8function15functor_managerINS_3_bi6bind_tINS3_11unspecifiedENS_4_mfi2mfIMN6Slic3r17SurfaceCollectionEFvvEvS9_JEEENS3_4listIJNS_3argILi1EEEEEEEEE6manageERKNS1_15function_bufferERSJ_NS1_30functor_manager_operation_typeE @787
    _ZN5boost6detail8function15functor_managerINS_3_bi6bind_tINS3_11unspecifiedENS_4_mfi2mfIMN6Slic3r18TriangleMeshSlicerILNS8_4AxisE0EEEKFvyPSt6vectorISC_INS8_16IntersectionLineESaISD_EESaISF_EEPNS_5mutexERKSC_IfSaIfEEEvSB_JySI_SK_SO_EEENS3_4listIJNS3_5valueIPKSB_EENS_3argILi1EEENST_ISI_EENST_ISK_EENST_ISM_EEEEEEEE6manageERKNS1_15function_bufferERS15_NS1_30functor_manager_operation_typeE @788
    _ZN5boost6detail8function15functor_managerINS_3_bi6bind_tINS3_11unspecifiedENS_4_mfi2mfIMN6Slic3r18TriangleMeshSlicerILNS8_4AxisE0EEEKFvyPSt6vectorISC_INS8_16IntersectionLineESaISD_EESaISF_EEPSC_ISC_INS8_7PolygonESaISJ_EESaISL_EEEvSB_JySI_SO_EEENS3_4listIJNS3_5valueIPKSB_EENS_3argILi1EEENST_ISI_EENST_ISO_EEEEEEEE6manageERKNS1_15function_bufferERS14_NS1_30functor_manager_operation_typeE @789
    _ZN5boost6detail8function15functor_managerINS_3_bi6bind_tINS3_11unspecifiedENS_4_mfi2mfIMN6Slic3r18TriangleMeshSlicerILNS8_4AxisE1EEEKFvyPSt6vectorISC_INS8_16IntersectionLineESaISD_EESaISF_EEPNS_5mutexERKSC_IfSaIfEEEvSB_JySI_SK_SO_EEENS3_4listIJNS3_5valueIPKSB_EENS_3argILi1EEENST_ISI_EENST_ISK_EENST_ISM_EEEEEEEE6manageERKNS1_15function_bufferERS15_NS1_30functor_manager_operation_typeE @790
    _ZN5boost6detail8function15functor_managerINS_3_bi6bind_tINS3_11unspecifiedENS_4_mfi2mfIMN6Slic3r18TriangleMeshSlicerILNS8_4AxisE1EEEKFvyPSt6vectorISC_INS8_16IntersectionLineESaISD_EESaISF_EEPSC_ISC_INS8_7PolygonESaISJ_EESaISL_EEEvSB_JySI_SO_EEENS3_4listIJNS3_5valueIPKSB_EENS_3argILi1EEENST_ISI_EENST_ISO_EEEEEEEE6manageERKNS1_15function_bufferERS14_NS1_30functor_manager_operation_typeE @791
    _ZN5boost6detail8function15functor_managerINS_3_bi6bind_tINS3_11unspecifiedENS_4_mfi2mfIMN6Slic3r18TriangleMeshSlicerILNS8_4AxisE2EEEKFvyPSt6vectorISC_INS8_16IntersectionLineESaISD_EESaISF_EEPNS_5mutexERKSC_IfSaIfEEEvSB_JySI_SK_SO_EEENS3_4listIJNS3_5valueIPKSB_EENS_3argILi1EEENST_ISI_EENST_ISK_EENST_ISM_EEEEEEEE6manageERKNS1_15function_bufferERS15_NS1_30functor_manager_operation_typeE @792
    _ZN5boost6detail8function15functor_managerINS_3_bi6bind_tINS3_11unspecifiedENS_4_mfi2mfIMN6Slic3r18TriangleMeshSlicerILNS8_4AxisE2EEEKFvyPSt6vectorISC_INS8_16IntersectionLineESaISD_EESaISF_EEPSC_ISC_INS8_7PolygonESaISJ_EESaISL_EEEvSB_JySI_SO_EEENS3_4listIJNS3_5valueIPKSB_EENS_3argILi1EEENST_ISI_EENST_ISO_EEEEEEEE6manageERKNS1_15function_bufferERS14_NS1_30functor_manager_operation_typeE @793
    _ZN5boost6detail8function15functor_managerINS_3_bi6bind_tINS3_11unspecifiedENS_4_mfi2mfIMN6Slic3r5LayerEFvvEvS9_JEEENS3_4listIJNS_3argILi1EEEEEEEEE6manageERKNS1_15function_bufferERSJ_NS1_30functor_manager_operation_typeE @794
    _ZN5boost6detail8function15functor_managerINS_3_bi6bind_tINS3_11unspecifiedENS_4_mfi2mfIMN6Slic3r8SLAPrintEFvyPKNS8_4FillEEvS9_JySC_EEENS3_4listIJNS3_5valueIPS9_EENS_3argILi1EEENSH_IPSA_EEEEEEEE6manageERKNS1_15function_bufferERSR_NS1_30functor_manager_operation_typeE @795
    _ZN5boost6detail8function15functor_managerINS_9algorithm6detail13token_finderFINS4_10is_any_ofFIcEEEEE6manageERKNS1_15function_bufferERSA_NS1_30functor_manager_operation_typeE @796
    _ZN5boost6detail8function20function_obj_invokerINS_9algorithm6detail13token_finderFINS4_10is_any_ofFIcEEEENS_14iterator_rangeIN9__gnu_cxx17__normal_iteratorIPcNSt7__cxx1112basic_stringIcSt11char_traitsIcESaIcEEEEEEEJSJ_SJ_EE6invokeERNS1_15function_bufferESJ_SJ_ @797
    _ZN5boost6detail8function25void_function_obj_invokerINS_3_bi6bind_tINS3_11unspecifiedENS_4_mfi2mfIMN6Slic3r15SupportMaterialEFviNS8_16toolpaths_paramsEEvS9_JiSA_EEENS3_4listIJNS3_5valueIPS9_EENS_3argILi1EEENSF_ISA_EEEEEEEvJyEE6invokeERNS1_15function_bufferEy @798
    _ZN5boost6detail8function25void_function_obj_invokerINS_3_bi6bind_tINS3_11unspecifiedENS_4_mfi2mfIMN6Slic3r17SurfaceCollectionEFvvEvS9_JEEENS3_4listIJNS_3argILi1EEEEEEEEvJPS9_EE6invokeERNS1_15function_bufferESI_ @799
    _ZN5boost6detail8function25void_function_obj_invokerINS_3_bi6bind_tINS3_11unspecifiedENS_4_mfi2mfIMN6Slic3r18TriangleMeshSlicerILNS8_4AxisE0EEEKFvyPSt6vectorISC_INS8_16IntersectionLineESaISD_EESaISF_EEPNS_5mutexERKSC_IfSaIfEEEvSB_JySI_SK_SO_EEENS3_4listIJNS3_5valueIPKSB_EENS_3argILi1EEENST_ISI_EENST_ISK_EENST_ISM_EEEEEEEvJiEE6invokeERNS1_15function_bufferEi @800
    _ZN5boost6detail8function25void_function_obj_invokerINS_3_bi6bind_tINS3_11unspecifiedENS_4_mfi2mfIMN6Slic3r18TriangleMeshSlicerILNS8_4AxisE0EEEKFvyPSt6vectorISC_INS8_16IntersectionLineESaISD_EESaISF_EEPSC_ISC_INS8_7PolygonESaISJ_EESaISL_EEEvSB_JySI_SO_EEENS3_4listIJNS3_5valueIPKSB_EENS_3argILi1EEENST_ISI_EENST_ISO_EEEEEEEvJyEE6invokeERNS1_15function_bufferEy @801
    _ZN5boost6detail8function25void_function_obj_invokerINS_3_bi6bind_tINS3_11unspecifiedENS_4_mfi2mfIMN6Slic3r18TriangleMeshSlicerILNS8_4AxisE1EEEKFvyPSt6vectorISC_INS8_16IntersectionLineESaISD_EESaISF_EEPNS_5mutexERKSC_IfSaIfEEEvSB_JySI_SK_SO_EEENS3_4listIJNS3_5valueIPKSB_EENS_3argILi1EEENST_ISI_EENST_ISK_EENST_ISM_EEEEEEEvJiEE6invokeERNS1_15function_bufferEi @802
    _ZN5boost6detail8function25void_function_obj_invokerINS_3_bi6bind_tINS3_11unspecifiedENS_4_mfi2mfIMN6Slic3r18TriangleMeshSlicerILNS8_4AxisE1EEEKFvyPSt6vectorISC_INS8_16IntersectionLineESaISD_EESaISF_EEPSC_ISC_INS8_7PolygonESaISJ_EESaISL_EEEvSB_JySI_SO_EEENS3_4listIJNS3_5valueIPKSB_EENS_3argILi1EEENST_ISI_EENST_ISO_EEEEEEEvJyEE6invokeERNS1_15function_bufferEy @803
    _ZN5boost6detail8function25void_function_obj_invokerINS_3_bi6bind_tINS3_11unspecifiedENS_4_mfi2mfIMN6Slic3r18TriangleMeshSlicerILNS8_4AxisE2EEEKFvyPSt6vectorISC_INS8_16IntersectionLineESaISD_EESaISF_EEPNS_5mutexERKSC_IfSaIfEEEvSB_JySI_SK_SO_EEENS3_4listIJNS3_5valueIPKSB_EENS_3argILi1EEENST_ISI_EENST_ISK_EENST_ISM_EEEEEEEvJiEE6invokeERNS1_15function_bufferEi @804
    _ZN5boost6detail8function25void_function_obj_invokerINS_3_bi6bind_tINS3_11unspecifiedENS_4_mfi2mfIMN6Slic3r18TriangleMeshSlicerILNS8_4AxisE2EEEKFvyPSt6vectorISC_INS8_16IntersectionLineESaISD_EESaISF_EEPSC_ISC_INS8_7PolygonESaISJ_EESaISL_EEEvSB_JySI_SO_EEENS3_4listIJNS3_5valueIPKSB_EENS_3argILi1EEENST_ISI_EENST_ISO_EEEEEEEvJyEE6invokeERNS1_15function_bufferEy @805
    _ZN5boost6detail8function25void_function_obj_invokerINS_3_bi6bind_tINS3_11unspecifiedENS_4_mfi2mfIMN6Slic3r5LayerEFvvEvS9_JEEENS3_4listIJNS_3argILi1EEEEEEEEvJPS9_EE6invokeERNS1_15function_bufferESI_ @806
    _ZN5boost6detail8function25void_function_obj_invokerINS_3_bi6bind_tINS3_11unspecifiedENS_4_mfi2mfIMN6Slic3r8SLAPrintEFvyPKNS8_4FillEEvS9_JySC_EEENS3_4listIJNS3_5valueIPS9_EENS_3argILi1EEENSH_IPSA_EEEEEEEvJyEE6invokeERNS1_15function_bufferEy @807
    _ZN5boost6locale4conv16conversion_errorD0Ev @808
    _ZN5boost6locale4conv16conversion_errorD1Ev @809
    _ZN5boost6nowide13basic_filebufIcSt11char_traitsIcEE4openEPKcSt13_Ios_Openmode @810
    _ZN5boost6nowide13basic_filebufIcSt11char_traitsIcEE4syncEv @811
    _ZN5boost6nowide13basic_filebufIcSt11char_traitsIcEE5closeEv @812
    _ZN5boost6nowide13basic_filebufIcSt11char_traitsIcEE5imbueERKSt6locale @813
    _ZN5boost6nowide13basic_filebufIcSt11char_traitsIcEE6setbufEPcx @814
    _ZN5boost6nowide13basic_filebufIcSt11char_traitsIcEE6xsgetnEPcx @815
    _ZN5boost6nowide13basic_filebufIcSt11char_traitsIcEE6xsputnEPKcx @816
    _ZN5boost6nowide13basic_filebufIcSt11char_traitsIcEE7seekoffExSt12_Ios_SeekdirSt13_Ios_Openmode @817
    _ZN5boost6nowide13basic_filebufIcSt11char_traitsIcEE7seekposESt4fposI9_MbstatetESt13_Ios_Openmode @818
    _ZN5boost6nowide13basic_filebufIcSt11char_traitsIcEE8overflowEi @819
    _ZN5boost6nowide13basic_filebufIcSt11char_traitsIcEE9pbackfailEi @820
    _ZN5boost6nowide13basic_filebufIcSt11char_traitsIcEE9underflowEv @821
    _ZN5boost6nowide13basic_filebufIcSt11char_traitsIcEED0Ev @822
    _ZN5boost6nowide13basic_filebufIcSt11char_traitsIcEED1Ev @823
    _ZN5boost6nowide14basic_ifstreamIcSt11char_traitsIcEED0Ev @824
    _ZN5boost6nowide14basic_ifstreamIcSt11char_traitsIcEED1Ev @825
    _ZN5boost6nowide14basic_ofstreamIcSt11char_traitsIcEED0Ev @826
    _ZN5boost6nowide14basic_ofstreamIcSt11char_traitsIcEED1Ev @827
    _ZN5boost6nowide3cinE @828 DATA
    _ZN5boost6nowide3utf14convert_bufferIcwEEPT_S4_yPKT0_S7_ @829
    _ZN5boost6nowide3utf14convert_bufferIwcEEPT_S4_yPKT0_S7_ @830
    _ZN5boost6nowide3utf14convert_stringIwcEENSt7__cxx1112basic_stringIT_St11char_traitsIS5_ESaIS5_EEEPKT0_SC_ @831
    _ZN5boost6nowide4cerrE @832 DATA
    _ZN5boost6nowide4clogE @833 DATA
    _ZN5boost6nowide4coutE @834 DATA
    _ZN5boost6nowide5fopenEPKcS2_ @835
    _ZN5boost6nowide6detail12fstream_implIcSt11char_traitsIcENS1_12StreamTypeInELi1EED2Ev @836
    _ZN5boost6nowide6detail12fstream_implIcSt11char_traitsIcENS1_13StreamTypeOutELi1EED2Ev @837
    _ZN5boost6nowide6detail18winconsole_istreamC1EPNS1_18winconsole_ostreamE @838
    _ZN5boost6nowide6detail18winconsole_istreamC2EPNS1_18winconsole_ostreamE @839
    _ZN5boost6nowide6detail18winconsole_istreamD0Ev @840
    _ZN5boost6nowide6detail18winconsole_istreamD1Ev @841
    _ZN5boost6nowide6detail18winconsole_istreamD2Ev @842
    _ZN5boost6nowide6detail18winconsole_ostreamC1EbPS2_ @843
    _ZN5boost6nowide6detail18winconsole_ostreamC2EbPS2_ @844
    _ZN5boost6nowide6detail18winconsole_ostreamD0Ev @845
    _ZN5boost6nowide6detail18winconsole_ostreamD1Ev @846
    _ZN5boost6nowide6detail18winconsole_ostreamD2Ev @847
    _ZN5boost6nowide6detail20console_input_buffer7do_readEPwyRy @848
    _ZN5boost6nowide6detail20console_input_bufferD0Ev @849
    _ZN5boost6nowide6detail20console_input_bufferD1Ev @850
    _ZN5boost6nowide6detail21console_output_buffer8do_writeEPKwyRy @851
    _ZN5boost6nowide6detail21console_output_bufferD0Ev @852
    _ZN5boost6nowide6detail21console_output_bufferD1Ev @853
    _ZN5boost6nowide6detail25console_input_buffer_base4readEv @854
    _ZN5boost6nowide6detail25console_input_buffer_base4syncEv @855
    _ZN5boost6nowide6detail25console_input_buffer_base9pbackfailEi @856
    _ZN5boost6nowide6detail25console_input_buffer_base9underflowEv @857
    _ZN5boost6nowide6detail26console_output_buffer_base4syncEv @858
    _ZN5boost6nowide6detail26console_output_buffer_base5writeEPKci @859
    _ZN5boost6nowide6detail26console_output_buffer_base8overflowEi @860
    _ZN5boost6nowide6detail5fseekEP6_iobufxi @861
    _ZN5boost6nowide6detail5ftellEP6_iobuf @862
    _ZN5boost6nowide6detail6wfopenEPKwS3_ @863
    _ZN5boost6nowide6getenvEPKc @864
    _ZN5boost6nowide6putenvEPc @865
    _ZN5boost6nowide6removeEPKc @866
    _ZN5boost6nowide6renameEPKcS2_ @867
    _ZN5boost6nowide6setenvEPKcS2_i @868
    _ZN5boost6nowide6systemEPKc @869
    _ZN5boost6nowide7freopenEPKcS2_P6_iobuf @870
    _ZN5boost6nowide8unsetenvEPKc @871
    _ZN5boost6system12system_errorC1EiRKNS0_14error_categoryEPKc @872
    _ZN5boost6system12system_errorD0Ev @873
    _ZN5boost6system12system_errorD1Ev @874
    _ZN5boost6system6detail12std_categoryD0Ev @875
    _ZN5boost6system6detail12std_categoryD1Ev @876
    _ZN5boost6system6detail17system_cat_holderIvE8instanceE @877 DATA
    _ZN5boost6system6detail18generic_cat_holderIvE8instanceE @878 DATA
    _ZN5boost6system6detail29system_category_message_win32B5cxx11Ei @879
    _ZN5boost6system6detail31system_category_condition_win32Ei @880
    _ZN5boost6thread13join_noexceptEv @881
    _ZN5boost6thread13native_handleEv @882
    _ZN5boost6thread14release_handleEv @883
    _ZN5boost6thread20hardware_concurrencyEv @884
    _ZN5boost6thread20physical_concurrencyEv @885
    _ZN5boost6thread21start_thread_noexceptERKNS_17thread_attributesE @886
    _ZN5boost6thread21start_thread_noexceptEv @887
    _ZN5boost6thread26do_try_join_until_noexceptERKNS_6detail23mono_platform_timepointERb @888
    _ZN5boost6thread6detachEv @889
    _ZN5boost6thread9interruptEv @890
    _ZN5boost6threadC1ENS_13intrusive_ptrINS_6detail16thread_data_baseEEE @891
    _ZN5boost6threadC1Ev @892
    _ZN5boost6threadC1IPFvPSt5queueIPN6Slic3r17SurfaceCollectionESt5dequeIS5_SaIS5_EEEPNS_5mutexENS_8functionIFvS5_EEEESA_SC_SF_EET_T0_T1_T2_ @893
    _ZN5boost6threadC1IPFvPSt5queueIPN6Slic3r5LayerESt5dequeIS5_SaIS5_EEEPNS_5mutexENS_8functionIFvS5_EEEESA_SC_SF_EET_T0_T1_T2_ @894
    _ZN5boost6threadC1IPFvPSt5queueIiSt5dequeIiSaIiEEEPNS_5mutexENS_8functionIFviEEEES7_S9_SC_EET_T0_T1_T2_ @895
    _ZN5boost6threadC1IPFvPSt5queueIySt5dequeIySaIyEEEPNS_5mutexENS_8functionIFvyEEEES7_S9_SC_EET_T0_T1_T2_ @896
    _ZN5boost6threadC2ENS_13intrusive_ptrINS_6detail16thread_data_baseEEE @897
    _ZN5boost6threadC2Ev @898
    _ZN5boost7polygon13scanline_baseIxE10intersectsERKSt4pairINS0_10point_dataIxEES5_ES8_ @899
    _ZN5boost7polygon13scanline_baseIxE10less_slopeIxEEbT_S4_S4_S4_ @900
    _ZN5boost7polygon13scanline_baseIxE11equal_slopeIxEEbT_S4_S4_S4_ @901
    _ZN5boost7polygon13scanline_baseIxE25compute_intersection_pack25compute_lazy_intersectionERNS0_10point_dataIxEERKSt4pairIS5_S5_ESA_bb @902
    _ZN5boost7polygon13scanline_baseIxE25compute_intersection_pack26compute_exact_intersectionERNS0_10point_dataIxEERKSt4pairIS5_S5_ESA_bb @903
    _ZN5boost7polygon13scanline_baseIxE7betweenENS0_10point_dataIxEES4_S4_ @904
    _ZN5boost7polygon15voronoi_builderIiNS0_6detail20voronoi_ctype_traitsIiEENS2_18voronoi_predicatesIS4_EEE14insert_new_arcINS0_15voronoi_diagramIdNS0_22voronoi_diagram_traitsIdEEEEEESt17_Rb_tree_iteratorISt4pairIKNS2_19beach_line_node_keyINS2_10site_eventIiEEEENS2_20beach_line_node_dataIvNS2_12circle_eventIdEEEEEERKSH_SR_SR_SP_PT_ @905
    _ZN5boost7polygon15voronoi_builderIiNS0_6detail20voronoi_ctype_traitsIiEENS2_18voronoi_predicatesIS4_EEE18process_site_eventINS0_15voronoi_diagramIdNS0_22voronoi_diagram_traitsIdEEEEEEvPT_ @906
    _ZN5boost7polygon15voronoi_builderIiNS0_6detail20voronoi_ctype_traitsIiEENS2_18voronoi_predicatesIS4_EEE20process_circle_eventINS0_15voronoi_diagramIdNS0_22voronoi_diagram_traitsIdEEEEEEvPT_ @907
    _ZN5boost7polygon15voronoi_builderIiNS0_6detail20voronoi_ctype_traitsIiEENS2_18voronoi_predicatesIS4_EEE21activate_circle_eventERKNS2_10site_eventIiEESB_SB_St17_Rb_tree_iteratorISt4pairIKNS2_19beach_line_node_keyIS9_EENS2_20beach_line_node_dataIvNS2_12circle_eventIdEEEEEE @908
    _ZN5boost7polygon15voronoi_diagramIdNS0_22voronoi_diagram_traitsIdEEE16_insert_new_edgeIiEESt4pairIPvS7_ERKNS0_6detail10site_eventIT_EESE_ @909
    _ZN5boost7polygon15voronoi_diagramIdNS0_22voronoi_diagram_traitsIdEEE6_buildEv @910
    _ZN5boost7polygon16polygon_set_dataIxE12insert_cleanERKSt4pairIS3_INS0_10point_dataIxEES5_EiEb @911
    _ZN5boost7polygon17construct_voronoiIN9__gnu_cxx17__normal_iteratorIPN6Slic3r4LineESt6vectorIS5_SaIS5_EEEENS0_15voronoi_diagramIdNS0_22voronoi_diagram_traitsIdEEEEEENS0_9enable_ifINS0_6gtl_ifINS0_18is_segment_conceptINS0_16geometry_conceptINSt15iterator_traitsIT_E10value_typeEE4typeEE4typeEE4typeEvE4typeESK_SK_PT0_ @912
    _ZN5boost7polygon17line_intersectionIxE13validate_scanIN9__gnu_cxx17__normal_iteratorIPSt4pairIS6_INS0_10point_dataIxEES8_ES6_IiiEESt6vectorISB_SaISB_EEEEiEEvRSD_IS6_IS9_S6_IT0_iEESaISJ_EET_SN_ @913
    _ZN5boost7polygon17line_intersectionIxE13validate_scanIN9__gnu_cxx17__normal_iteratorIPSt4pairIS6_INS0_10point_dataIxEES8_EiESt6vectorISA_SaISA_EEEEEEvRSC_ISt3setIS8_St4lessIS8_ESaIS8_EESaISK_EET_SO_x @914
    _ZN5boost7polygon17line_intersectionIxE14compute_y_cutsIN9__gnu_cxx17__normal_iteratorIPSt4pairIxS6_IyyEESt6vectorIS8_SaIS8_EEEEEEvRSA_IxSaIxEET_SH_y @915
    _ZN5boost7polygon17line_intersectionIxE21segment_intersectionsIN9__gnu_cxx17__normal_iteratorIPSt4pairIS6_INS0_10point_dataIxEES8_EiESt6vectorISA_SaISA_EEEEEEvRSE_RSC_ISt3setIS8_St4lessIS8_ESaIS8_EESaISL_EET_SP_ @916
    _ZN5boost7polygon17line_intersectionIxE32validate_scan_divide_and_conquerIN9__gnu_cxx17__normal_iteratorIPSt4pairIS6_INS0_10point_dataIxEES8_EiESt6vectorISA_SaISA_EEEEEEvRSC_ISt3setIS8_St4lessIS8_ESaIS8_EESaISK_EET_SO_ @917
    _ZN5boost7polygon27polygon_arbitrary_formationIxE21active_tail_arbitrary23createActiveTailsAsPairENS0_10point_dataIxEEbPS3_b @918
    _ZN5boost7polygon27polygon_arbitrary_formationIxE21active_tail_arbitraryD1Ev @919
    _ZN5boost7polygon29trapezoid_arbitrary_formationIxE13processEvent_ISt6vectorIN6Slic3r7PolygonESaIS6_EEN9__gnu_cxx17__normal_iteratorIPNS0_13scanline_baseIxE16vertex_half_edgeES4_ISD_SaISD_EEEEEET0_RT_SI_SI_ @920
    _ZN5boost7polygon29trapezoid_arbitrary_formationIxE13processPoint_ISt6vectorIN6Slic3r7PolygonESaIS6_EES4_ISt4pairINS0_13scanline_baseIxE16vertex_half_edgeEPNS0_27polygon_arbitrary_formationIxE21active_tail_arbitraryEESaISH_EEEES9_IS9_INS0_10point_dataIxEEiESG_ERT_RT0_RS9_ISG_SG_ESt17_Rb_tree_iteratorIS9_IKSC_SG_EESL_RS4_IS9_IS9_IS9_ISL_SL_EiESG_ESaIS10_EERS4_ISM_SaISM_EE @921
    _ZN5boost7polygon6detail12extended_intILy64EE3addERKS3_S5_ @922
    _ZN5boost7polygon6detail12extended_intILy64EE3difEPKjyS5_yb @923
    _ZN5boost7polygon6detail12extended_intILy64EE3difERKS3_S5_ @924
    _ZN5boost7polygon6detail12extended_intILy64EE3mulERKS3_S5_ @925
    _ZN5boost7polygon6detail16robust_sqrt_exprINS1_12extended_intILy64EEENS1_21extended_exponent_fptIdNS1_27extened_exponent_fpt_traitsIdEEEENS1_19type_converter_efptEE5eval3EPS4_SB_ @926
    _ZN5boost7polygon6detail16robust_sqrt_exprINS1_12extended_intILy64EEENS1_21extended_exponent_fptIdNS1_27extened_exponent_fpt_traitsIdEEEENS1_19type_converter_efptEE5eval4EPS4_SB_ @927
    _ZN5boost7polygon6detail18voronoi_predicatesINS1_20voronoi_ctype_traitsIiEEE20robust_cross_productExxxx @928
    _ZN5boost7polygon6detail18voronoi_predicatesINS1_20voronoi_ctype_traitsIiEEE27mp_circle_formation_functorINS1_10site_eventIiEENS1_12circle_eventIdEEE24sqrt_expr_evaluator_pss4INS1_12extended_intILy64EEENS1_21extended_exponent_fptIdNS1_27extened_exponent_fpt_traitsIdEEEEEET0_PT_SL_ @929
    _ZN5boost7polygon6detail18voronoi_predicatesINS1_20voronoi_ctype_traitsIiEEE27mp_circle_formation_functorINS1_10site_eventIiEENS1_12circle_eventIdEEE3ppsERKS8_SD_SD_iRSA_bbb @930
    _ZN5boost7polygon6detail18voronoi_predicatesINS1_20voronoi_ctype_traitsIiEEE27mp_circle_formation_functorINS1_10site_eventIiEENS1_12circle_eventIdEEE3pssERKS8_SD_SD_iRSA_bbb @931
    _ZN5boost7polygon6detail18voronoi_predicatesINS1_20voronoi_ctype_traitsIiEEE27mp_circle_formation_functorINS1_10site_eventIiEENS1_12circle_eventIdEEE3sssERKS8_SD_SD_RSA_bbb @932
    _ZN5boost7polygon6detail18voronoi_predicatesINS1_20voronoi_ctype_traitsIiEEE29lazy_circle_formation_functorINS1_10site_eventIiEENS1_12circle_eventIdEEE3ppsERKS8_SD_SD_iRSA_ @933
    _ZN5boost7polygon6detail18voronoi_predicatesINS1_20voronoi_ctype_traitsIiEEE29lazy_circle_formation_functorINS1_10site_eventIiEENS1_12circle_eventIdEEE3pssERKS8_SD_SD_iRSA_ @934
    _ZN5boost7polygon6detail18voronoi_predicatesINS1_20voronoi_ctype_traitsIiEEE29lazy_circle_formation_functorINS1_10site_eventIiEENS1_12circle_eventIdEEE3sssERKS8_SD_SD_RSA_ @935
    _ZN5boost7polygon6detailmlINS1_10robust_fptIdEEEENS1_10robust_difIT_EERKS7_RKS6_ @936
    _ZN5boost7polygon8scanlineIxiSt6vectorIiSaIiEEE19merge_property_mapsERS2_ISt4pairIiiESaIS7_EERKS9_ @937
    _ZN5boost7polygon8scanlineIxiSt6vectorIiSaIiEEE19update_property_mapERS2_ISt4pairIiiESaIS7_EERKS7_ @938
    _ZN5boost7polygon8scanlineIxiSt6vectorIiSaIiEEE30insert_new_edges_into_scanlineEv @939
    _ZN5boost7polygon8scanlineIxiSt6vectorIiSaIiEEE34remove_retired_edges_from_scanlineEv @940
    _ZN5boost7polygon8scanlineIxiSt6vectorIiSaIiEEED1Ev @941
    _ZN5boost9algorithm10iends_withINSt7__cxx1112basic_stringIcSt11char_traitsIcESaIcEEEA5_cEEbRKT_RKT0_RKSt6locale @942
    _ZN5boost9algorithm4joinISt6vectorINSt7__cxx1112basic_stringIcSt11char_traitsIcESaIcEEESaIS8_EEA3_cEENS_11range_valueIT_E4typeERKSD_RKT0_ @943
    _ZN5boost9algorithm6detail10is_any_ofFIcEC1ERKS3_ @944
    _ZN5boost9algorithm6detail10is_any_ofFIcEC1INS_14iterator_rangeIPKcEEEERKT_ @945
    _ZN6Slic3r10ConfigBase10apply_onlyERKS0_RKSt6vectorINSt7__cxx1112basic_stringIcSt11char_traitsIcESaIcEEESaIS9_EEb @946
    _ZN6Slic3r10ConfigBase10apply_onlyERKS0_RKSt6vectorINSt7__cxx1112basic_stringIcSt11char_traitsIcESaIcEEESaIS9_EEbb @947
    _ZN6Slic3r10ConfigBase10setStringsERKNSt7__cxx1112basic_stringIcSt11char_traitsIcESaIcEEESt6vectorIS6_SaIS6_EE @948
    _ZN6Slic3r10ConfigBase12option_throwERKNSt7__cxx1112basic_stringIcSt11char_traitsIcESaIcEEEb @949
    _ZN6Slic3r10ConfigBase12set_defaultsERKSt6vectorINSt7__cxx1112basic_stringIcSt11char_traitsIcESaIcEEESaIS7_EE @950
    _ZN6Slic3r10ConfigBase15set_deserializeENSt7__cxx1112basic_stringIcSt11char_traitsIcESaIcEEES6_b @951
    _ZN6Slic3r10ConfigBase21set_deserialize_throwENSt7__cxx1112basic_stringIcSt11char_traitsIcESaIcEEES6_b @952
    _ZN6Slic3r10ConfigBase4loadERKNSt7__cxx1112basic_stringIcSt11char_traitsIcESaIcEEE @953
    _ZN6Slic3r10ConfigBase5applyERKS0_b @954
    _ZN6Slic3r10ConfigBase6optionERKNSt7__cxx1112basic_stringIcSt11char_traitsIcESaIcEEEb @955
    _ZN6Slic3r10ConfigBase6setIntERKNSt7__cxx1112basic_stringIcSt11char_traitsIcESaIcEEEi @956
    _ZN6Slic3r10ConfigBase7setBoolERKNSt7__cxx1112basic_stringIcSt11char_traitsIcESaIcEEEb @957
    _ZN6Slic3r10ConfigBase7setenv_Ev @958
    _ZN6Slic3r10ConfigBase8setFloatERKNSt7__cxx1112basic_stringIcSt11char_traitsIcESaIcEEEd @959
    _ZN6Slic3r10ConfigBase9setStringERKNSt7__cxx1112basic_stringIcSt11char_traitsIcESaIcEEES6_ @960
    _ZN6Slic3r10FillGyroid20_fill_surface_singleEjRKSt4pairIfNS_5PointEERNS_9ExPolygonEPSt6vectorINS_8PolylineESaIS9_EE @961
    _ZN6Slic3r10FillGyroidD0Ev @962
    _ZN6Slic3r10FillGyroidD1Ev @963
    _ZN6Slic3r10MZ_Archive12get_errorstrB5cxx11E12mz_zip_error @964
    _ZN6Slic3r10MZ_ArchiveC1Ev @965
    _ZN6Slic3r10MZ_ArchiveC2Ev @966
    _ZN6Slic3r10MultiPoint16_douglas_peuckerERKSt6vectorINS_5PointESaIS2_EEd @967
    _ZN6Slic3r10MultiPoint23remove_duplicate_pointsEv @968
    _ZN6Slic3r10MultiPoint5scaleEd @969
    _ZN6Slic3r10MultiPoint6appendERKN9__gnu_cxx17__normal_iteratorIPKNS_5PointESt6vectorIS3_SaIS3_EEEESB_ @970
    _ZN6Slic3r10MultiPoint6appendERKNS_5PointE @971
    _ZN6Slic3r10MultiPoint6appendERKSt6vectorINS_5PointESaIS2_EE @972
    _ZN6Slic3r10MultiPoint6rotateEd @973
    _ZN6Slic3r10MultiPoint6rotateEdRKNS_5PointE @974
    _ZN6Slic3r10MultiPoint7reverseEv @975
    _ZN6Slic3r10MultiPoint9translateERKNS_5PointE @976
    _ZN6Slic3r10MultiPoint9translateEdd @977
    _ZN6Slic3r10PrintStateINS_15PrintObjectStepEE10invalidateES1_ @978
    _ZN6Slic3r10PrintStateINS_15PrintObjectStepEE11set_startedES1_ @979
    _ZN6Slic3r10PrintStateINS_15PrintObjectStepEE8set_doneES1_ @980
    _ZN6Slic3r10PrintStateINS_9PrintStepEE10invalidateES1_ @981
    _ZN6Slic3r10PrintStateINS_9PrintStepEE11set_startedES1_ @982
    _ZN6Slic3r10PrintStateINS_9PrintStepEE8set_doneES1_ @983
    _ZN6Slic3r10ZipArchive13extract_entryENSt7__cxx1112basic_stringIcSt11char_traitsIcESaIcEEES6_ @984
    _ZN6Slic3r10ZipArchive7z_statsEv @985
    _ZN6Slic3r10ZipArchive8finalizeEv @986
    _ZN6Slic3r10ZipArchive9add_entryENSt7__cxx1112basic_stringIcSt11char_traitsIcESaIcEEES6_ @987
    _ZN6Slic3r10ZipArchiveC1ENSt7__cxx1112basic_stringIcSt11char_traitsIcESaIcEEEc @988
    _ZN6Slic3r10ZipArchiveC2ENSt7__cxx1112basic_stringIcSt11char_traitsIcESaIcEEEc @989
    _ZN6Slic3r10ZipArchiveD1Ev @990
    _ZN6Slic3r10ZipArchiveD2Ev @991
    _ZN6Slic3r10offset2_exERKSt6vectorINS_7PolygonESaIS1_EEffdN10ClipperLib8JoinTypeEd @992
    _ZN6Slic3r10slic3r_logE @993 DATA
    _ZN6Slic3r11BoundingBoxC1ERKSt6vectorINS_4LineESaIS2_EE @994
    _ZN6Slic3r11BoundingBoxC2ERKSt6vectorINS_4LineESaIS2_EE @995
    _ZN6Slic3r11FileIOErrorD0Ev @996
    _ZN6Slic3r11FileIOErrorD1Ev @997
    _ZN6Slic3r11GCodeConfig6optptrERKNSt7__cxx1112basic_stringIcSt11char_traitsIcESaIcEEEb @998
    _ZN6Slic3r11GCodeConfigD2Ev @999
    _ZN6Slic3r11LayerRegion12merge_slicesEv @1000
    _ZN6Slic3r11LayerRegion15make_perimetersERKNS_17SurfaceCollectionEPS1_ @1001
    _ZN6Slic3r11LayerRegion21prepare_fill_surfacesEv @1002
    _ZN6Slic3r11LayerRegion25process_external_surfacesEv @1003
    _ZN6Slic3r11LayerRegion9make_fillEv @1004
    _ZN6Slic3r11ModelObject10add_volumeERKNS_11ModelVolumeE @1005
    _ZN6Slic3r11ModelObject10add_volumeERKNS_12TriangleMeshE @1006
    _ZN6Slic3r11ModelObject12add_instanceERKNS_13ModelInstanceE @1007
    _ZN6Slic3r11ModelObject12add_instanceEv @1008
    _ZN6Slic3r11ModelObject12bounding_boxEv @1009
    _ZN6Slic3r11ModelObject12scale_to_fitERKNS_7Pointf3E @1010
    _ZN6Slic3r11ModelObject13clear_volumesEv @1011
    _ZN6Slic3r11ModelObject13delete_volumeEy @1012
    _ZN6Slic3r11ModelObject15align_to_groundEv @1013
    _ZN6Slic3r11ModelObject15clear_instancesEv @1014
    _ZN6Slic3r11ModelObject15delete_instanceEy @1015
    _ZN6Slic3r11ModelObject16reset_undo_trafoEv @1016
    _ZN6Slic3r11ModelObject19update_bounding_boxEv @1017
    _ZN6Slic3r11ModelObject20apply_transformationERKNS_20TransformationMatrixE @1018
    _ZN6Slic3r11ModelObject20center_around_originEv @1019
    _ZN6Slic3r11ModelObject20delete_last_instanceEv @1020
    _ZN6Slic3r11ModelObject21transform_by_instanceENS_13ModelInstanceEb @1021
    _ZN6Slic3r11ModelObject23invalidate_bounding_boxEv @1022
    _ZN6Slic3r11ModelObject4swapERS0_ @1023
    _ZN6Slic3r11ModelObject5scaleERKNS_7Pointf3E @1024
    _ZN6Slic3r11ModelObject5scaleEd @1025
    _ZN6Slic3r11ModelObject5splitEPSt6vectorIPS0_SaIS2_EE @1026
    _ZN6Slic3r11ModelObject6mirrorERKNS_4AxisE @1027
    _ZN6Slic3r11ModelObject6repairEv @1028
    _ZN6Slic3r11ModelObject6rotateERKNS_7Pointf3ES3_ @1029
    _ZN6Slic3r11ModelObject6rotateEdRKNS_4AxisE @1030
    _ZN6Slic3r11ModelObject6rotateEdRKNS_7Pointf3E @1031
    _ZN6Slic3r11ModelObject9translateERKNS_7Pointf3E @1032
    _ZN6Slic3r11ModelObject9translateEddd @1033
    _ZN6Slic3r11ModelObjectC1EPNS_5ModelE @1034
    _ZN6Slic3r11ModelObjectC1EPNS_5ModelERKS0_b @1035
    _ZN6Slic3r11ModelObjectC2EPNS_5ModelE @1036
    _ZN6Slic3r11ModelObjectC2EPNS_5ModelERKS0_b @1037
    _ZN6Slic3r11ModelObjectD1Ev @1038
    _ZN6Slic3r11ModelObjectD2Ev @1039
    _ZN6Slic3r11ModelObjectaSES0_ @1040
    _ZN6Slic3r11ModelVolume11material_idENSt7__cxx1112basic_stringIcSt11char_traitsIcESaIcEEE @1041
    _ZN6Slic3r11ModelVolume12set_materialENSt7__cxx1112basic_stringIcSt11char_traitsIcESaIcEEERKNS_13ModelMaterialE @1042
    _ZN6Slic3r11ModelVolume20apply_transformationERKNS_20TransformationMatrixE @1043
    _ZN6Slic3r11ModelVolume22assign_unique_materialEv @1044
    _ZN6Slic3r11ModelVolume4swapERS0_ @1045
    _ZN6Slic3r11ModelVolume5scaleEddd @1046
    _ZN6Slic3r11ModelVolume6mirrorERKNS_4AxisE @1047
    _ZN6Slic3r11ModelVolume6mirrorERKNS_7Pointf3E @1048
    _ZN6Slic3r11ModelVolume6rotateEdRKNS_4AxisE @1049
    _ZN6Slic3r11ModelVolume9translateEddd @1050
    _ZN6Slic3r11ModelVolumeC1EPNS_11ModelObjectERKNS_12TriangleMeshE @1051
    _ZN6Slic3r11ModelVolumeC1EPNS_11ModelObjectERKS0_ @1052
    _ZN6Slic3r11ModelVolumeC2EPNS_11ModelObjectERKNS_12TriangleMeshE @1053
    _ZN6Slic3r11ModelVolumeC2EPNS_11ModelObjectERKS0_ @1054
    _ZN6Slic3r11ModelVolumeaSES0_ @1055
    _ZN6Slic3r11PrintConfig6optptrERKNSt7__cxx1112basic_stringIcSt11char_traitsIcESaIcEEEb @1056
    _ZN6Slic3r11PrintConfigD0Ev @1057
    _ZN6Slic3r11PrintConfigD1Ev @1058
    _ZN6Slic3r11PrintObject10set_copiesERKSt6vectorINS_5PointESaIS2_EE @1059
    _ZN6Slic3r11PrintObject12clear_layersEv @1060
    _ZN6Slic3r11PrintObject12delete_layerEi @1061
    _ZN6Slic3r11PrintObject13_slice_regionEySt6vectorIfSaIfEEb @1062
    _ZN6Slic3r11PrintObject14combine_infillEv @1063
    _ZN6Slic3r11PrintObject14prepare_infillEv @1064
    _ZN6Slic3r11PrintObject15invalidate_stepENS_15PrintObjectStepE @1065
    _ZN6Slic3r11PrintObject15make_perimetersEv @1066
    _ZN6Slic3r11PrintObject16_simplify_slicesEd @1067
    _ZN6Slic3r11PrintObject16delete_last_copyEv @1068
    _ZN6Slic3r11PrintObject17_support_materialEv @1069
    _ZN6Slic3r11PrintObject17add_region_volumeEii @1070
    _ZN6Slic3r11PrintObject17add_support_layerEidd @1071
    _ZN6Slic3r11PrintObject17delete_all_copiesEv @1072
    _ZN6Slic3r11PrintObject18bridge_over_infillEv @1073
    _ZN6Slic3r11PrintObject18clip_fill_surfacesEv @1074
    _ZN6Slic3r11PrintObject20clear_support_layersEv @1075
    _ZN6Slic3r11PrintObject20delete_support_layerEi @1076
    _ZN6Slic3r11PrintObject20detect_surfaces_typeEv @1077
    _ZN6Slic3r11PrintObject20invalidate_all_stepsEv @1078
    _ZN6Slic3r11PrintObject22_support_material_flowENS_8FlowRoleE @1079
    _ZN6Slic3r11PrintObject22generate_object_layersEd @1080
    _ZN6Slic3r11PrintObject22reload_model_instancesEv @1081
    _ZN6Slic3r11PrintObject25generate_support_materialEv @1082
    _ZN6Slic3r11PrintObject25process_external_surfacesEv @1083
    _ZN6Slic3r11PrintObject26discover_horizontal_shellsEv @1084
    _ZN6Slic3r11PrintObject26invalidate_state_by_configERKNS_15PrintConfigBaseE @1085
    _ZN6Slic3r11PrintObject36_discover_external_horizontal_shellsEPNS_11LayerRegionERKyS4_ @1086
    _ZN6Slic3r11PrintObject36_discover_neighbor_horizontal_shellsEPNS_11LayerRegionERKyS4_RKNS_11SurfaceTypeERSt6vectorINS_7PolygonESaIS9_EES4_ @1087
    _ZN6Slic3r11PrintObject5sliceEv @1088
    _ZN6Slic3r11PrintObject6_sliceEv @1089
    _ZN6Slic3r11PrintObject6infillEv @1090
    _ZN6Slic3r11PrintObject8add_copyERKNS_6PointfE @1091
    _ZN6Slic3r11PrintObject9add_layerEiddd @1092
    _ZN6Slic3r11PrintObjectC1EPNS_5PrintEPNS_11ModelObjectERKNS_13BoundingBoxf3E @1093
    _ZN6Slic3r11PrintObjectC2EPNS_5PrintEPNS_11ModelObjectERKNS_13BoundingBoxf3E @1094
    _ZN6Slic3r11PrintObjectD1Ev @1095
    _ZN6Slic3r11PrintObjectD2Ev @1096
    _ZN6Slic3r11PrintRegion26invalidate_state_by_configERKNS_15PrintConfigBaseE @1097
    _ZN6Slic3r11PrintRegion5printEv @1098
    _ZN6Slic3r11PrintRegionC1EPNS_5PrintE @1099
    _ZN6Slic3r11PrintRegionC2EPNS_5PrintE @1100
    _ZN6Slic3r11PrintRegionD1Ev @1101
    _ZN6Slic3r11PrintRegionD2Ev @1102
    _ZN6Slic3r11SimplePrint12export_gcodeENSt7__cxx1112basic_stringIcSt11char_traitsIcESaIcEEE @1103
    _ZN6Slic3r11SimplePrint9set_modelERKNS_5ModelE @1104
    _ZN6Slic3r11_clipper_doEN10ClipperLib8ClipTypeERKSt6vectorINS_8PolylineESaIS3_EERKS2_INS_7PolygonESaIS8_EENS0_12PolyFillTypeEb @1105
    _ZN6Slic3r11_clipper_doIN10ClipperLib8PolyTreeEEET_NS1_8ClipTypeERKSt6vectorINS_7PolygonESaIS6_EESA_NS1_12PolyFillTypeEb @1106
    _ZN6Slic3r11_clipper_doISt6vectorIS1_IN10ClipperLib8IntPointESaIS3_EESaIS5_EEEET_NS2_8ClipTypeERKS1_INS_7PolygonESaISA_EESE_NS2_12PolyFillTypeEb @1107
    _ZN6Slic3r11_clipper_exEN10ClipperLib8ClipTypeERKSt6vectorINS_7PolygonESaIS3_EES7_b @1108
    _ZN6Slic3r11_clipper_lnEN10ClipperLib8ClipTypeERKSt6vectorINS_4LineESaIS3_EERKS2_INS_7PolygonESaIS8_EEb @1109
    _ZN6Slic3r11_clipper_plEN10ClipperLib8ClipTypeERKSt6vectorINS_7PolygonESaIS3_EES7_b @1110
    _ZN6Slic3r11_clipper_plEN10ClipperLib8ClipTypeERKSt6vectorINS_8PolylineESaIS3_EERKS2_INS_7PolygonESaIS8_EEb @1111
    _ZN6Slic3r11face_z_spanEPK9stl_facet @1112
    _ZN6Slic3r11parallelizeIPNS_17SurfaceCollectionEEEvSt5queueIT_St5dequeIS4_SaIS4_EEEN5boost8functionIFvS4_EEEi @1113
    _ZN6Slic3r11parallelizeIPNS_5LayerEEEvSt5queueIT_St5dequeIS4_SaIS4_EEEN5boost8functionIFvS4_EEEi @1114
    _ZN6Slic3r11parallelizeIiEEvSt5queueIT_St5dequeIS2_SaIS2_EEEN5boost8functionIFvS2_EEEi @1115
    _ZN6Slic3r11parallelizeIiEEvT_S1_N5boost8functionIFvS1_EEEi @1116
    _ZN6Slic3r11parallelizeIyEEvSt5queueIT_St5dequeIS2_SaIS2_EEEN5boost8functionIFvS2_EEEi @1117
    _ZN6Slic3r11parallelizeIyEEvT_S1_N5boost8functionIFvS1_EEEi @1118
    _ZN6Slic3r11to_polygonsERKSt6vectorINS_9ExPolygonESaIS1_EE @1119
    _ZN6Slic3r11to_polygonsERKSt6vectorIPNS_7SurfaceESaIS2_EE @1120
    _ZN6Slic3r11traverse_ptERSt6vectorIPN10ClipperLib8PolyNodeESaIS3_EEPS0_INS_7PolygonESaIS7_EE @1121
    _ZN6Slic3r12ConfigOption10setStringsESt6vectorINSt7__cxx1112basic_stringIcSt11char_traitsIcESaIcEEESaIS7_EE @1122
    _ZN6Slic3r12ConfigOption6setIntEi @1123
    _ZN6Slic3r12ConfigOption7setBoolEb @1124
    _ZN6Slic3r12ConfigOption8setFloatEd @1125
    _ZN6Slic3r12ConfigOption9setStringENSt7__cxx1112basic_stringIcSt11char_traitsIcESaIcEEE @1126
    _ZN6Slic3r12StaticConfig12set_defaultsEv @1127
    _ZN6Slic3r12SupportLayerD0Ev @1128
    _ZN6Slic3r12SupportLayerD1Ev @1129
    _ZN6Slic3r12TriangleMesh11ReadSTLFileERKNSt7__cxx1112basic_stringIcSt11char_traitsIcESaIcEEE @1130
    _ZN6Slic3r12TriangleMesh11convex_hullEv @1131
    _ZN6Slic3r12TriangleMesh11extrude_tinEf @1132
    _ZN6Slic3r12TriangleMesh11make_sphereEdd @1133
    _ZN6Slic3r12TriangleMesh12align_to_bedEv @1134
    _ZN6Slic3r12TriangleMesh13make_cylinderEddd @1135
    _ZN6Slic3r12TriangleMesh14check_topologyEv @1136
    _ZN6Slic3r12TriangleMesh15align_to_originEv @1137
    _ZN6Slic3r12TriangleMesh15reverse_normalsEv @1138
    _ZN6Slic3r12TriangleMesh18reset_repair_statsEv @1139
    _ZN6Slic3r12TriangleMesh20center_around_originEv @1140
    _ZN6Slic3r12TriangleMesh23require_shared_verticesEv @1141
    _ZN6Slic3r12TriangleMesh3cutENS_4AxisEdPS0_S2_ @1142
    _ZN6Slic3r12TriangleMesh4swapERS0_ @1143
    _ZN6Slic3r12TriangleMesh5cloneERKS0_ @1144
    _ZN6Slic3r12TriangleMesh5mergeERKS0_ @1145
    _ZN6Slic3r12TriangleMesh5scaleERKNS_7Pointf3E @1146
    _ZN6Slic3r12TriangleMesh5scaleEf @1147
    _ZN6Slic3r12TriangleMesh5sliceERKSt6vectorIdSaIdEE @1148
    _ZN6Slic3r12TriangleMesh6facetsEv @1149
    _ZN6Slic3r12TriangleMesh6mirrorERKNS_4AxisE @1150
    _ZN6Slic3r12TriangleMesh6repairEv @1151
    _ZN6Slic3r12TriangleMesh6rotateEdPNS_5PointE @1152
    _ZN6Slic3r12TriangleMesh6rotateEdRKNS_5PointE @1153
    _ZN6Slic3r12TriangleMesh6rotateEfRKNS_4AxisE @1154
    _ZN6Slic3r12TriangleMesh6volumeEv @1155
    _ZN6Slic3r12TriangleMesh8mirror_xEv @1156
    _ZN6Slic3r12TriangleMesh8mirror_yEv @1157
    _ZN6Slic3r12TriangleMesh8mirror_zEv @1158
    _ZN6Slic3r12TriangleMesh8rotate_xEf @1159
    _ZN6Slic3r12TriangleMesh8rotate_yEf @1160
    _ZN6Slic3r12TriangleMesh8rotate_zEf @1161
    _ZN6Slic3r12TriangleMesh8verticesEv @1162
    _ZN6Slic3r12TriangleMesh9make_cubeEddd @1163
    _ZN6Slic3r12TriangleMesh9transformERKNS_20TransformationMatrixE @1164
    _ZN6Slic3r12TriangleMesh9translateENS_7Pointf3E @1165
    _ZN6Slic3r12TriangleMesh9translateEfff @1166
    _ZN6Slic3r12TriangleMeshC1EOS0_ @1167
    _ZN6Slic3r12TriangleMeshC1EPKNS_7Pointf3EPKNS_6Point3Ey @1168
    _ZN6Slic3r12TriangleMeshC1ERKS0_ @1169
    _ZN6Slic3r12TriangleMeshC1Ev @1170
    _ZN6Slic3r12TriangleMeshC2EOS0_ @1171
    _ZN6Slic3r12TriangleMeshC2EPKNS_7Pointf3EPKNS_6Point3Ey @1172
    _ZN6Slic3r12TriangleMeshC2ERKS0_ @1173
    _ZN6Slic3r12TriangleMeshC2Ev @1174
    _ZN6Slic3r12TriangleMeshD1Ev @1175
    _ZN6Slic3r12TriangleMeshD2Ev @1176
    _ZN6Slic3r12TriangleMeshaSEOS0_ @1177
    _ZN6Slic3r12TriangleMeshaSERKS0_ @1178
    _ZN6Slic3r13DynamicConfig4swapERS0_ @1179
    _ZN6Slic3r13DynamicConfig5clearEv @1180
    _ZN6Slic3r13DynamicConfig5eraseERKNSt7__cxx1112basic_stringIcSt11char_traitsIcESaIcEEE @1181
    _ZN6Slic3r13DynamicConfig6optptrERKNSt7__cxx1112basic_stringIcSt11char_traitsIcESaIcEEEb @1182
    _ZN6Slic3r13DynamicConfig8read_cliERKSt6vectorINSt7__cxx1112basic_stringIcSt11char_traitsIcESaIcEEESaIS7_EEPS9_SC_ @1183
    _ZN6Slic3r13DynamicConfig8read_cliEiPPcPSt6vectorINSt7__cxx1112basic_stringIcSt11char_traitsIcESaIcEEESaIS9_EESC_ @1184
    _ZN6Slic3r13DynamicConfigC1ERKS0_ @1185
    _ZN6Slic3r13DynamicConfigC2ERKS0_ @1186
    _ZN6Slic3r13DynamicConfigD0Ev @1187
    _ZN6Slic3r13DynamicConfigD1Ev @1188
    _ZN6Slic3r13DynamicConfigD2Ev @1189
    _ZN6Slic3r13DynamicConfigaSES0_ @1190
    _ZN6Slic3r13ExtrusionLoop14make_clockwiseEv @1191
    _ZN6Slic3r13ExtrusionLoop15split_at_vertexERKNS_5PointE @1192
    _ZN6Slic3r13ExtrusionLoop22make_counter_clockwiseEv @1193
    _ZN6Slic3r13ExtrusionLoop7reverseEv @1194
    _ZN6Slic3r13ExtrusionLoop8split_atERKNS_5PointEb @1195
    _ZN6Slic3r13ExtrusionLoopD0Ev @1196
    _ZN6Slic3r13ExtrusionLoopD1Ev @1197
    _ZN6Slic3r13ExtrusionPath7reverseEv @1198
    _ZN6Slic3r13ExtrusionPath8clip_endEd @1199
    _ZN6Slic3r13ExtrusionPath8simplifyEd @1200
    _ZN6Slic3r13ExtrusionPathD0Ev @1201
    _ZN6Slic3r13ExtrusionPathD1Ev @1202
    _ZN6Slic3r13FillHoneycomb20_fill_surface_singleEjRKSt4pairIfNS_5PointEERNS_9ExPolygonEPSt6vectorINS_8PolylineESaIS9_EE @1203
    _ZN6Slic3r13FillHoneycombD0Ev @1204
    _ZN6Slic3r13FillHoneycombD1Ev @1205
    _ZN6Slic3r13FillPlanePath20_fill_surface_singleEjRKSt4pairIfNS_5PointEERNS_9ExPolygonEPSt6vectorINS_8PolylineESaIS9_EE @1206
    _ZN6Slic3r13FillTriangles20_fill_surface_singleEjRKSt4pairIfNS_5PointEERNS_9ExPolygonEPSt6vectorINS_8PolylineESaIS9_EE @1207
    _ZN6Slic3r13FillTrianglesD0Ev @1208
    _ZN6Slic3r13FillTrianglesD1Ev @1209
    _ZN6Slic3r13ModelInstance18set_complete_trafoERKNS_20TransformationMatrixE @1210
    _ZN6Slic3r13ModelInstance4swapERS0_ @1211
    _ZN6Slic3r13ModelInstanceC1EPNS_11ModelObjectE @1212
    _ZN6Slic3r13ModelInstanceC1EPNS_11ModelObjectERKNS_20TransformationMatrixE @1213
    _ZN6Slic3r13ModelInstanceC1EPNS_11ModelObjectERKS0_ @1214
    _ZN6Slic3r13ModelInstanceC2EPNS_11ModelObjectE @1215
    _ZN6Slic3r13ModelInstanceC2EPNS_11ModelObjectERKNS_20TransformationMatrixE @1216
    _ZN6Slic3r13ModelInstanceC2EPNS_11ModelObjectERKS0_ @1217
    _ZN6Slic3r13ModelInstanceaSES0_ @1218
    _ZN6Slic3r13ModelMaterial5applyERKSt3mapINSt7__cxx1112basic_stringIcSt11char_traitsIcESaIcEEES7_St4lessIS7_ESaISt4pairIKS7_S7_EEE @1219
    _ZN6Slic3r13ModelMaterialC1EPNS_5ModelE @1220
    _ZN6Slic3r13ModelMaterialC1EPNS_5ModelERKS0_ @1221
    _ZN6Slic3r13ModelMaterialC2EPNS_5ModelE @1222
    _ZN6Slic3r13ModelMaterialC2EPNS_5ModelERKS0_ @1223
    _ZN6Slic3r13ThickPolyline7reverseEv @1224
    _ZN6Slic3r13ThickPolylineD1Ev @1225
    _ZN6Slic3r13_fill_surfaceEPNS_4FillEPNS_7SurfaceE @1226
    _ZN6Slic3r13safety_offsetEPSt6vectorIS0_IN10ClipperLib8IntPointESaIS2_EESaIS4_EE @1227
    _ZN6Slic3r14BridgeDetector12detect_angleEv @1228
    _ZN6Slic3r14BridgeDetectorC1ERKNS_9ExPolygonERKNS_19ExPolygonCollectionEx @1229
    _ZN6Slic3r14BridgeDetectorC2ERKNS_9ExPolygonERKNS_19ExPolygonCollectionEx @1230
    _ZN6Slic3r14BridgeDetectorD1Ev @1231
    _ZN6Slic3r14FillConcentric20_fill_surface_singleEjRKSt4pairIfNS_5PointEERNS_9ExPolygonEPSt6vectorINS_8PolylineESaIS9_EE @1232
    _ZN6Slic3r14FillConcentricD0Ev @1233
    _ZN6Slic3r14FillConcentricD1Ev @1234
    _ZN6Slic3r14PrintConfigDefC1Ev @1235
    _ZN6Slic3r14PrintConfigDefC2Ev @1236
    _ZN6Slic3r14SLAPrintConfig6optptrERKNSt7__cxx1112basic_stringIcSt11char_traitsIcESaIcEEEb @1237
    _ZN6Slic3r14SLAPrintConfigD0Ev @1238
    _ZN6Slic3r14SLAPrintConfigD1Ev @1239
    _ZN6Slic3r15BoundingBoxBaseINS_5PointEE5mergeERKS1_ @1240
    _ZN6Slic3r15BoundingBoxBaseINS_5PointEE5mergeERKS2_ @1241
    _ZN6Slic3r15BoundingBoxBaseINS_5PointEE5mergeERKSt6vectorIS1_SaIS1_EE @1242
    _ZN6Slic3r15BoundingBoxBaseINS_5PointEE5scaleEd @1243
    _ZN6Slic3r15BoundingBoxBaseINS_5PointEE6offsetEd @1244
    _ZN6Slic3r15BoundingBoxBaseINS_5PointEE9translateEdd @1245
    _ZN6Slic3r15BoundingBoxBaseINS_5PointEEC1ERKSt6vectorIS1_SaIS1_EE @1246
    _ZN6Slic3r15BoundingBoxBaseINS_5PointEEC2ERKSt6vectorIS1_SaIS1_EE @1247
    _ZN6Slic3r15BoundingBoxBaseINS_6PointfEE5mergeERKS1_ @1248
    _ZN6Slic3r15BoundingBoxBaseINS_6PointfEE5mergeERKS2_ @1249
    _ZN6Slic3r15BoundingBoxBaseINS_6PointfEE5mergeERKSt6vectorIS1_SaIS1_EE @1250
    _ZN6Slic3r15BoundingBoxBaseINS_6PointfEE5scaleEd @1251
    _ZN6Slic3r15BoundingBoxBaseINS_6PointfEE6offsetEd @1252
    _ZN6Slic3r15BoundingBoxBaseINS_6PointfEE9translateEdd @1253
    _ZN6Slic3r15BoundingBoxBaseINS_6PointfEEC1ERKSt6vectorIS1_SaIS1_EE @1254
    _ZN6Slic3r15BoundingBoxBaseINS_6PointfEEC2ERKSt6vectorIS1_SaIS1_EE @1255
    _ZN6Slic3r15BoundingBoxBaseINS_7Pointf3EE5scaleEd @1256
    _ZN6Slic3r15ConfigOptionDefC1ERKS0_ @1257
    _ZN6Slic3r15ConfigOptionDefC2ERKS0_ @1258
    _ZN6Slic3r15ConfigOptionDefD1Ev @1259
    _ZN6Slic3r15ConfigOptionDefD2Ev @1260
    _ZN6Slic3r15ConfigOptionInt11deserializeENSt7__cxx1112basic_stringIcSt11char_traitsIcESaIcEEEb @1261
    _ZN6Slic3r15ConfigOptionInt6setIntEi @1262
    _ZN6Slic3r15ConfigOptionIntD0Ev @1263
    _ZN6Slic3r15ConfigOptionIntD1Ev @1264
    _ZN6Slic3r15Fill3DHoneycomb20_fill_surface_singleEjRKSt4pairIfNS_5PointEERNS_9ExPolygonEPSt6vectorINS_8PolylineESaIS9_EE @1265
    _ZN6Slic3r15Fill3DHoneycombD0Ev @1266
    _ZN6Slic3r15Fill3DHoneycombD1Ev @1267
    _ZN6Slic3r15FillRectilinear20_fill_surface_singleEjRKSt4pairIfNS_5PointEERNS_9ExPolygonEPSt6vectorINS_8PolylineESaIS9_EE @1268
    _ZN6Slic3r15FillRectilinear22_fill_single_directionENS_9ExPolygonERKSt4pairIfNS_5PointEExPSt6vectorINS_8PolylineESaIS8_EE @1269
    _ZN6Slic3r15FillRectilinearD0Ev @1270
    _ZN6Slic3r15FillRectilinearD1Ev @1271
    _ZN6Slic3r15PrintConfigBase15set_deserializeENSt7__cxx1112basic_stringIcSt11char_traitsIcESaIcEEES6_b @1272
    _ZN6Slic3r15SlicingAdaptive17next_layer_heightEdddd @1273
    _ZN6Slic3r15SlicingAdaptive24_layer_height_from_facetEif @1274
    _ZN6Slic3r15SlicingAdaptive25horizontal_facet_distanceEdd @1275
    _ZN6Slic3r15SlicingAdaptive5clearEv @1276
    _ZN6Slic3r15SlicingAdaptive7prepareEd @1277
    _ZN6Slic3r15SupportMaterial10object_topEPNS_11PrintObjectEPSt3mapIdSt6vectorINS_7PolygonESaIS5_EESt4lessIdESaISt4pairIKdS7_EEE @1278
    _ZN6Slic3r15SupportMaterial12contact_areaEPNS_11PrintObjectE @1279
    _ZN6Slic3r15SupportMaterial13create_circleEd @1280
    _ZN6Slic3r15SupportMaterial13process_layerEiNS_16toolpaths_paramsE @1281
    _ZN6Slic3r15SupportMaterial15append_polygonsERSt6vectorINS_7PolygonESaIS2_EES5_ @1282
    _ZN6Slic3r15SupportMaterial15clip_with_shapeERSt3mapIiSt6vectorINS_7PolygonESaIS3_EESt4lessIiESaISt4pairIKiS5_EEESD_ @1283
    _ZN6Slic3r15SupportMaterial15get_keys_sortedESt3mapIdSt6vectorINS_7PolygonESaIS3_EESt4lessIdESaISt4pairIKdS5_EEE @1284
    _ZN6Slic3r15SupportMaterial16clip_with_objectERSt3mapIiSt6vectorINS_7PolygonESaIS3_EESt4lessIiESaISt4pairIKiS5_EEES2_IdSaIdEERNS_11PrintObjectE @1285
    _ZN6Slic3r15SupportMaterial16contact_distanceEdd @1286
    _ZN6Slic3r15SupportMaterial16support_layers_zESt6vectorIdSaIdEES3_d @1287
    _ZN6Slic3r15SupportMaterial18generate_toolpathsEPNS_11PrintObjectESt3mapIdSt6vectorINS_7PolygonESaIS5_EESt4lessIdESaISt4pairIKdS7_EEESE_S3_IiS7_S8_IiESaISA_IKiS7_EEESJ_ @1288
    _ZN6Slic3r15SupportMaterial18overlapping_layersEiRKSt6vectorIdSaIdEE @1289
    _ZN6Slic3r15SupportMaterial1pERSt6vectorIPNS_7SurfaceESaIS3_EE @1290
    _ZN6Slic3r15SupportMaterial20generate_base_layersESt6vectorIdSaIdEESt3mapIdS1_INS_7PolygonESaIS5_EESt4lessIdESaISt4pairIKdS7_EEES4_IiS7_S8_IiESaISA_IKiS7_EEESE_ @1291
    _ZN6Slic3r15SupportMaterial20get_max_layer_heightEPNS_11PrintObjectE @1292
    _ZN6Slic3r15SupportMaterial22generate_pillars_shapeERKSt3mapIdSt6vectorINS_7PolygonESaIS3_EESt4lessIdESaISt4pairIKdS5_EEERKS2_IdSaIdEERS1_IiS5_S6_IiESaIS8_IKiS5_EEE @1293
    _ZN6Slic3r15SupportMaterial25generate_interface_layersESt6vectorIdSaIdEESt3mapIdS1_INS_7PolygonESaIS5_EESt4lessIdESaISt4pairIKdS7_EEESE_ @1294
    _ZN6Slic3r15SupportMaterial32generate_bottom_interface_layersERKSt6vectorIdSaIdEERSt3mapIiS1_INS_7PolygonESaIS7_EESt4lessIiESaISt4pairIKiS9_EEERS6_IdS9_SA_IdESaISC_IKdS9_EEESH_ @1295
    _ZN6Slic3r15SupportMaterial8generateEPNS_11PrintObjectE @1296
    _ZN6Slic3r15_parallelize_doIPNS_17SurfaceCollectionEEEvPSt5queueIT_St5dequeIS4_SaIS4_EEEPN5boost5mutexENSA_8functionIFvS4_EEE @1297
    _ZN6Slic3r15_parallelize_doIPNS_5LayerEEEvPSt5queueIT_St5dequeIS4_SaIS4_EEEPN5boost5mutexENSA_8functionIFvS4_EEE @1298
    _ZN6Slic3r15_parallelize_doIiEEvPSt5queueIT_St5dequeIS2_SaIS2_EEEPN5boost5mutexENS8_8functionIFvS2_EEE @1299
    _ZN6Slic3r15_parallelize_doIyEEvPSt5queueIT_St5dequeIS2_SaIS2_EEEPN5boost5mutexENS8_8functionIFvS2_EEE @1300
    _ZN6Slic3r15open_zip_readerEP14mz_zip_archiveRKNSt7__cxx1112basic_stringIcSt11char_traitsIcESaIcEEE @1301
    _ZN6Slic3r15open_zip_writerEP14mz_zip_archiveRKNSt7__cxx1112basic_stringIcSt11char_traitsIcESaIcEEE @1302
    _ZN6Slic3r15polygons_appendERSt6vectorINS_7PolygonESaIS1_EEOS3_ @1303
    _ZN6Slic3r16BoundingBox3BaseINS_7Pointf3EE5mergeERKS1_ @1304
    _ZN6Slic3r16BoundingBox3BaseINS_7Pointf3EE5mergeERKS2_ @1305
    _ZN6Slic3r16BoundingBox3BaseINS_7Pointf3EE5mergeERKSt6vectorIS1_SaIS1_EE @1306
    _ZN6Slic3r16BoundingBox3BaseINS_7Pointf3EE6offsetEd @1307
    _ZN6Slic3r16BoundingBox3BaseINS_7Pointf3EE9translateEddd @1308
    _ZN6Slic3r16BoundingBox3BaseINS_7Pointf3EEC1ERKSt6vectorIS1_SaIS1_EE @1309
    _ZN6Slic3r16BoundingBox3BaseINS_7Pointf3EEC2ERKSt6vectorIS1_SaIS1_EE @1310
    _ZN6Slic3r16CLIMiscConfigDefC1Ev @1311
    _ZN6Slic3r16CLIMiscConfigDefC2Ev @1312
    _ZN6Slic3r16ConfigOptionBool11deserializeENSt7__cxx1112basic_stringIcSt11char_traitsIcESaIcEEEb @1313
    _ZN6Slic3r16ConfigOptionBool7setBoolEb @1314
    _ZN6Slic3r16ConfigOptionBoolD0Ev @1315
    _ZN6Slic3r16ConfigOptionBoolD1Ev @1316
    _ZN6Slic3r16ConfigOptionEnumINS_11GCodeFlavorEE11deserializeENSt7__cxx1112basic_stringIcSt11char_traitsIcESaIcEEEb @1317
    _ZN6Slic3r16ConfigOptionEnumINS_11GCodeFlavorEE15get_enum_valuesB5cxx11Ev @1318
    _ZN6Slic3r16ConfigOptionEnumINS_11GCodeFlavorEED0Ev @1319
    _ZN6Slic3r16ConfigOptionEnumINS_11GCodeFlavorEED1Ev @1320
    _ZN6Slic3r16ConfigOptionEnumINS_12SeamPositionEE11deserializeENSt7__cxx1112basic_stringIcSt11char_traitsIcESaIcEEEb @1321
    _ZN6Slic3r16ConfigOptionEnumINS_12SeamPositionEE15get_enum_valuesB5cxx11Ev @1322
    _ZN6Slic3r16ConfigOptionEnumINS_12SeamPositionEED0Ev @1323
    _ZN6Slic3r16ConfigOptionEnumINS_12SeamPositionEED1Ev @1324
    _ZN6Slic3r16ConfigOptionEnumINS_13InfillPatternEE11deserializeENSt7__cxx1112basic_stringIcSt11char_traitsIcESaIcEEEb @1325
    _ZN6Slic3r16ConfigOptionEnumINS_13InfillPatternEE15get_enum_valuesB5cxx11Ev @1326
    _ZN6Slic3r16ConfigOptionEnumINS_13InfillPatternEED0Ev @1327
    _ZN6Slic3r16ConfigOptionEnumINS_13InfillPatternEED1Ev @1328
    _ZN6Slic3r16ConfigOptionEnumINS_22SupportMaterialPatternEE11deserializeENSt7__cxx1112basic_stringIcSt11char_traitsIcESaIcEEEb @1329
    _ZN6Slic3r16ConfigOptionEnumINS_22SupportMaterialPatternEE15get_enum_valuesB5cxx11Ev @1330
    _ZN6Slic3r16ConfigOptionEnumINS_22SupportMaterialPatternEED0Ev @1331
    _ZN6Slic3r16ConfigOptionEnumINS_22SupportMaterialPatternEED1Ev @1332
    _ZN6Slic3r16ConfigOptionEnumINS_8HostTypeEE11deserializeENSt7__cxx1112basic_stringIcSt11char_traitsIcESaIcEEEb @1333
    _ZN6Slic3r16ConfigOptionEnumINS_8HostTypeEE15get_enum_valuesB5cxx11Ev @1334
    _ZN6Slic3r16ConfigOptionEnumINS_8HostTypeEED0Ev @1335
    _ZN6Slic3r16ConfigOptionEnumINS_8HostTypeEED1Ev @1336
    _ZN6Slic3r16ConfigOptionInts11deserializeENSt7__cxx1112basic_stringIcSt11char_traitsIcESaIcEEEb @1337
    _ZN6Slic3r16ConfigOptionIntsD0Ev @1338
    _ZN6Slic3r16ConfigOptionIntsD1Ev @1339
    _ZN6Slic3r16FillHilbertCurve9_generateExxxx @1340
    _ZN6Slic3r16FillHilbertCurveD0Ev @1341
    _ZN6Slic3r16FillHilbertCurveD1Ev @1342
    _ZN6Slic3r16close_zip_readerEP14mz_zip_archive @1343
    _ZN6Slic3r16close_zip_writerEP14mz_zip_archive @1344
    _ZN6Slic3r16print_config_defE @1345 DATA
    _ZN6Slic3r16toolpaths_paramsC1ERKS0_ @1346
    _ZN6Slic3r16toolpaths_paramsD1Ev @1347
    _ZN6Slic3r16union_pt_chainedERKSt6vectorINS_7PolygonESaIS1_EEb @1348
    _ZN6Slic3r17ConfigOptionBools11deserializeENSt7__cxx1112basic_stringIcSt11char_traitsIcESaIcEEEb @1349
    _ZN6Slic3r17ConfigOptionBoolsD0Ev @1350
    _ZN6Slic3r17ConfigOptionBoolsD1Ev @1351
    _ZN6Slic3r17ConfigOptionFloat11deserializeENSt7__cxx1112basic_stringIcSt11char_traitsIcESaIcEEEb @1352
    _ZN6Slic3r17ConfigOptionFloat6setIntEi @1353
    _ZN6Slic3r17ConfigOptionFloat8setFloatEd @1354
    _ZN6Slic3r17ConfigOptionFloatD0Ev @1355
    _ZN6Slic3r17ConfigOptionFloatD1Ev @1356
    _ZN6Slic3r17ConfigOptionPoint11deserializeENSt7__cxx1112basic_stringIcSt11char_traitsIcESaIcEEEb @1357
    _ZN6Slic3r17ConfigOptionPointD0Ev @1358
    _ZN6Slic3r17ConfigOptionPointD1Ev @1359
    _ZN6Slic3r17LayerHeightSpline14_updateBSplineEv @1360
    _ZN6Slic3r17LayerHeightSpline16getLayerHeightAtEd @1361
    _ZN6Slic3r17LayerHeightSpline18updateLayerHeightsESt6vectorIdSaIdEE @1362
    _ZN6Slic3r17LayerHeightSpline5clearEv @1363
    _ZN6Slic3r17LayerHeightSpline7hasDataEv @1364
    _ZN6Slic3r17LayerHeightSpline9setLayersESt6vectorIdSaIdEE @1365
    _ZN6Slic3r17LayerHeightSplineC1ERKS0_ @1366
    _ZN6Slic3r17LayerHeightSplineC1Ev @1367
    _ZN6Slic3r17LayerHeightSplineC2ERKS0_ @1368
    _ZN6Slic3r17LayerHeightSplineC2Ev @1369
    _ZN6Slic3r17LayerHeightSplineD1Ev @1370
    _ZN6Slic3r17LayerHeightSplineaSERKS0_ @1371
    _ZN6Slic3r17PlaceholderParser12apply_configERKNS_13DynamicConfigE @1372
    _ZN6Slic3r17PlaceholderParser16update_timestampEv @1373
    _ZN6Slic3r17PlaceholderParser19apply_env_variablesEv @1374
    _ZN6Slic3r17PlaceholderParser3setERKNSt7__cxx1112basic_stringIcSt11char_traitsIcESaIcEEES8_ @1375
    _ZN6Slic3r17PlaceholderParser3setERKNSt7__cxx1112basic_stringIcSt11char_traitsIcESaIcEEESt6vectorIS6_SaIS6_EE @1376
    _ZN6Slic3r17PlaceholderParser3setERKNSt7__cxx1112basic_stringIcSt11char_traitsIcESaIcEEEi @1377
    _ZN6Slic3r17PlaceholderParserC1Ev @1378
    _ZN6Slic3r17PlaceholderParserC2Ev @1379
    _ZN6Slic3r17PlaceholderParserD1Ev @1380
    _ZN6Slic3r17PrintObjectConfig6optptrERKNSt7__cxx1112basic_stringIcSt11char_traitsIcESaIcEEEb @1381
    _ZN6Slic3r17PrintObjectConfigD0Ev @1382
    _ZN6Slic3r17PrintObjectConfigD1Ev @1383
    _ZN6Slic3r17PrintRegionConfig6optptrERKNSt7__cxx1112basic_stringIcSt11char_traitsIcESaIcEEEb @1384
    _ZN6Slic3r17PrintRegionConfigC1EOS0_ @1385
    _ZN6Slic3r17PrintRegionConfigC1ERKS0_ @1386
    _ZN6Slic3r17PrintRegionConfigD0Ev @1387
    _ZN6Slic3r17PrintRegionConfigD1Ev @1388
    _ZN6Slic3r17SurfaceCollection10keep_typesEPKNS_11SurfaceTypeEy @1389
    _ZN6Slic3r17SurfaceCollection10keep_typesESt16initializer_listINS_11SurfaceTypeEE @1390
    _ZN6Slic3r17SurfaceCollection11remove_typeENS_11SurfaceTypeE @1391
    _ZN6Slic3r17SurfaceCollection12remove_typesEPKNS_11SurfaceTypeEy @1392
    _ZN6Slic3r17SurfaceCollection12remove_typesESt16initializer_listINS_11SurfaceTypeEE @1393
    _ZN6Slic3r17SurfaceCollection14filter_by_typeENS_11SurfaceTypeEPSt6vectorINS_7PolygonESaIS3_EE @1394
    _ZN6Slic3r17SurfaceCollection14filter_by_typeESt16initializer_listINS_11SurfaceTypeEE @1395
    _ZN6Slic3r17SurfaceCollection23remove_collinear_pointsEv @1396
    _ZN6Slic3r17SurfaceCollection5groupEPSt6vectorIS1_IPNS_7SurfaceESaIS3_EESaIS5_EE @1397
    _ZN6Slic3r17SurfaceCollection5groupEv @1398
    _ZN6Slic3r17SurfaceCollection6appendERKNS_7SurfaceE @1399
    _ZN6Slic3r17SurfaceCollection6appendERKS0_ @1400
    _ZN6Slic3r17SurfaceCollection6appendERKSt6vectorINS_7SurfaceESaIS2_EE @1401
    _ZN6Slic3r17SurfaceCollection6appendERKSt6vectorINS_9ExPolygonESaIS2_EENS_11SurfaceTypeE @1402
    _ZN6Slic3r17SurfaceCollection6appendERKSt6vectorINS_9ExPolygonESaIS2_EERKNS_7SurfaceE @1403
    _ZN6Slic3r17SurfaceCollection8simplifyEd @1404
    _ZN6Slic3r17SurfaceCollection9keep_typeENS_11SurfaceTypeE @1405
    _ZN6Slic3r17simplify_polygonsERKSt6vectorINS_7PolygonESaIS1_EEb @1406
    _ZN6Slic3r18ConfigOptionFloats11deserializeENSt7__cxx1112basic_stringIcSt11char_traitsIcESaIcEEEb @1407
    _ZN6Slic3r18ConfigOptionFloatsD0Ev @1408
    _ZN6Slic3r18ConfigOptionFloatsD1Ev @1409
    _ZN6Slic3r18ConfigOptionPoint311deserializeENSt7__cxx1112basic_stringIcSt11char_traitsIcESaIcEEEb @1410
    _ZN6Slic3r18ConfigOptionPoint3D0Ev @1411
    _ZN6Slic3r18ConfigOptionPoint3D1Ev @1412
    _ZN6Slic3r18ConfigOptionPoints11deserializeENSt7__cxx1112basic_stringIcSt11char_traitsIcESaIcEEEb @1413
    _ZN6Slic3r18ConfigOptionPointsD0Ev @1414
    _ZN6Slic3r18ConfigOptionPointsD1Ev @1415
    _ZN6Slic3r18ConfigOptionSingleINS_11GCodeFlavorEE3setERKNS_12ConfigOptionE @1416
    _ZN6Slic3r18ConfigOptionSingleINS_12SeamPositionEE3setERKNS_12ConfigOptionE @1417
    _ZN6Slic3r18ConfigOptionSingleINS_13InfillPatternEE3setERKNS_12ConfigOptionE @1418
    _ZN6Slic3r18ConfigOptionSingleINS_22SupportMaterialPatternEE3setERKNS_12ConfigOptionE @1419
    _ZN6Slic3r18ConfigOptionSingleINS_6PointfEE3setERKNS_12ConfigOptionE @1420
    _ZN6Slic3r18ConfigOptionSingleINS_7Pointf3EE3setERKNS_12ConfigOptionE @1421
    _ZN6Slic3r18ConfigOptionSingleINS_8HostTypeEE3setERKNS_12ConfigOptionE @1422
    _ZN6Slic3r18ConfigOptionSingleINSt7__cxx1112basic_stringIcSt11char_traitsIcESaIcEEEE3setERKNS_12ConfigOptionE @1423
    _ZN6Slic3r18ConfigOptionSingleIbE3setERKNS_12ConfigOptionE @1424
    _ZN6Slic3r18ConfigOptionSingleIdE3setERKNS_12ConfigOptionE @1425
    _ZN6Slic3r18ConfigOptionSingleIiE3setERKNS_12ConfigOptionE @1426
    _ZN6Slic3r18ConfigOptionString11deserializeENSt7__cxx1112basic_stringIcSt11char_traitsIcESaIcEEEb @1427
    _ZN6Slic3r18ConfigOptionString6setIntEi @1428
    _ZN6Slic3r18ConfigOptionString8setFloatEd @1429
    _ZN6Slic3r18ConfigOptionString9setStringENSt7__cxx1112basic_stringIcSt11char_traitsIcESaIcEEE @1430
    _ZN6Slic3r18ConfigOptionStringC1ENSt7__cxx1112basic_stringIcSt11char_traitsIcESaIcEEE @1431
    _ZN6Slic3r18ConfigOptionStringC1Ev @1432
    _ZN6Slic3r18ConfigOptionStringD0Ev @1433
    _ZN6Slic3r18ConfigOptionStringD1Ev @1434
    _ZN6Slic3r18ConfigOptionVectorINS_6PointfEE3setERKNS_12ConfigOptionE @1435
    _ZN6Slic3r18ConfigOptionVectorINSt7__cxx1112basic_stringIcSt11char_traitsIcESaIcEEEE3setERKNS_12ConfigOptionE @1436
    _ZN6Slic3r18ConfigOptionVectorIbE3setERKNS_12ConfigOptionE @1437
    _ZN6Slic3r18ConfigOptionVectorIdE3setERKNS_12ConfigOptionE @1438
    _ZN6Slic3r18ConfigOptionVectorIiE3setERKNS_12ConfigOptionE @1439
    _ZN6Slic3r18DynamicPrintConfig9normalizeEv @1440
    _ZN6Slic3r18DynamicPrintConfigD0Ev @1441
    _ZN6Slic3r18DynamicPrintConfigD1Ev @1442
    _ZN6Slic3r18FillOctagramSpiral9_generateExxxx @1443
    _ZN6Slic3r18FillOctagramSpiralD0Ev @1444
    _ZN6Slic3r18FillOctagramSpiralD1Ev @1445
    _ZN6Slic3r18PerimeterGenerator7processEv @1446
    _ZN6Slic3r18PolylineCollection12chained_pathERKSt6vectorINS_8PolylineESaIS2_EEb @1447
    _ZN6Slic3r18PolylineCollection14leftmost_pointERKSt6vectorINS_8PolylineESaIS2_EE @1448
    _ZN6Slic3r18PolylineCollection17chained_path_fromERKSt6vectorINS_8PolylineESaIS2_EENS_5PointEb @1449
    _ZN6Slic3r18PolylineCollection18_chained_path_fromERKSt6vectorINS_8PolylineESaIS2_EENS_5PointEb @1450
    _ZN6Slic3r18PolylineCollection6appendERKSt6vectorINS_8PolylineESaIS2_EE @1451
    _ZN6Slic3r18TriangleMeshSlicerILNS_4AxisE0EEC1EPNS_12TriangleMeshE @1452
    _ZN6Slic3r18TriangleMeshSlicerILNS_4AxisE0EEC2EPNS_12TriangleMeshE @1453
    _ZN6Slic3r18TriangleMeshSlicerILNS_4AxisE0EED1Ev @1454
    _ZN6Slic3r18TriangleMeshSlicerILNS_4AxisE0EED2Ev @1455
    _ZN6Slic3r18TriangleMeshSlicerILNS_4AxisE1EEC1EPNS_12TriangleMeshE @1456
    _ZN6Slic3r18TriangleMeshSlicerILNS_4AxisE1EEC2EPNS_12TriangleMeshE @1457
    _ZN6Slic3r18TriangleMeshSlicerILNS_4AxisE1EED1Ev @1458
    _ZN6Slic3r18TriangleMeshSlicerILNS_4AxisE1EED2Ev @1459
    _ZN6Slic3r18TriangleMeshSlicerILNS_4AxisE2EEC1EPNS_12TriangleMeshE @1460
    _ZN6Slic3r18TriangleMeshSlicerILNS_4AxisE2EEC2EPNS_12TriangleMeshE @1461
    _ZN6Slic3r18TriangleMeshSlicerILNS_4AxisE2EED1Ev @1462
    _ZN6Slic3r18TriangleMeshSlicerILNS_4AxisE2EED2Ev @1463
    _ZN6Slic3r19CLIActionsConfigDefC1Ev @1464
    _ZN6Slic3r19CLIActionsConfigDefC2Ev @1465
    _ZN6Slic3r19ConfigOptionPercent11deserializeENSt7__cxx1112basic_stringIcSt11char_traitsIcESaIcEEEb @1466
    _ZN6Slic3r19ConfigOptionPercentD0Ev @1467
    _ZN6Slic3r19ConfigOptionPercentD1Ev @1468
    _ZN6Slic3r19ConfigOptionStrings11deserializeENSt7__cxx1112basic_stringIcSt11char_traitsIcESaIcEEEb @1469
    _ZN6Slic3r19ConfigOptionStringsD0Ev @1470
    _ZN6Slic3r19ConfigOptionStringsD1Ev @1471
    _ZN6Slic3r19ExPolygonCollection5scaleEd @1472
    _ZN6Slic3r19ExPolygonCollection6appendERKNS_9ExPolygonE @1473
    _ZN6Slic3r19ExPolygonCollection6appendERKSt6vectorINS_9ExPolygonESaIS2_EE @1474
    _ZN6Slic3r19ExPolygonCollection6rotateEdRKNS_5PointE @1475
    _ZN6Slic3r19ExPolygonCollection8simplifyEd @1476
    _ZN6Slic3r19ExPolygonCollection9translateEdd @1477
    _ZN6Slic3r19ExPolygonCollectionC1ERKNS_9ExPolygonE @1478
    _ZN6Slic3r19ExPolygonCollectionC2ERKNS_9ExPolygonE @1479
    _ZN6Slic3r19ExPolygonCollectioncvRSt6vectorINS_9ExPolygonESaIS2_EEEv @1480
    _ZN6Slic3r19cli_misc_config_defE @1481 DATA
    _ZN6Slic3r20PolyTreeToExPolygonsERN10ClipperLib8PolyTreeE @1482
    _ZN6Slic3r20TransformationMatrix10applyRightERKS0_ @1483
    _ZN6Slic3r20TransformationMatrix10mat_mirrorERKNS_4AxisE @1484
    _ZN6Slic3r20TransformationMatrix10mat_mirrorERKNS_7Pointf3E @1485
    _ZN6Slic3r20TransformationMatrix12mat_rotationENS_7Pointf3ES1_ @1486
    _ZN6Slic3r20TransformationMatrix12mat_rotationEdRKNS_4AxisE @1487
    _ZN6Slic3r20TransformationMatrix12mat_rotationEdRKNS_7Pointf3E @1488
    _ZN6Slic3r20TransformationMatrix12mat_rotationEdddd @1489
    _ZN6Slic3r20TransformationMatrix15mat_translationERKNS_7Pointf3E @1490
    _ZN6Slic3r20TransformationMatrix15mat_translationEddd @1491
    _ZN6Slic3r20TransformationMatrix4swapERS0_ @1492
    _ZN6Slic3r20TransformationMatrix7mat_eyeEv @1493
    _ZN6Slic3r20TransformationMatrix8multiplyERKS0_S2_ @1494
    _ZN6Slic3r20TransformationMatrix9applyLeftERKS0_ @1495
    _ZN6Slic3r20TransformationMatrix9mat_scaleEd @1496
    _ZN6Slic3r20TransformationMatrix9mat_scaleEddd @1497
    _ZN6Slic3r20TransformationMatrixC1ERKS0_ @1498
    _ZN6Slic3r20TransformationMatrixC1ERKSt6vectorIdSaIdEE @1499
    _ZN6Slic3r20TransformationMatrixC1Edddddddddddd @1500
    _ZN6Slic3r20TransformationMatrixC1Ev @1501
    _ZN6Slic3r20TransformationMatrixC2ERKS0_ @1502
    _ZN6Slic3r20TransformationMatrixC2ERKSt6vectorIdSaIdEE @1503
    _ZN6Slic3r20TransformationMatrixC2Edddddddddddd @1504
    _ZN6Slic3r20TransformationMatrixC2Ev @1505
    _ZN6Slic3r20TransformationMatrixaSES0_ @1506
    _ZN6Slic3r20escape_string_cstyleERKNSt7__cxx1112basic_stringIcSt11char_traitsIcESaIcEEE @1507
    _ZN6Slic3r20scaleClipperPolygonsERSt6vectorIS0_IN10ClipperLib8IntPointESaIS2_EESaIS4_EEd @1508
    _ZN6Slic3r20simplify_polygons_exERKSt6vectorINS_7PolygonESaIS1_EEb @1509
    _ZN6Slic3r21CLITransformConfigDefC1Ev @1510
    _ZN6Slic3r21CLITransformConfigDefC2Ev @1511
    _ZN6Slic3r21ConfigOptionExceptionC2ENSt7__cxx1112basic_stringIcSt11char_traitsIcESaIcEEE @1512
    _ZN6Slic3r21ConfigOptionExceptionD0Ev @1513
    _ZN6Slic3r21ConfigOptionExceptionD1Ev @1514
    _ZN6Slic3r21FillArchimedeanChords9_generateExxxx @1515
    _ZN6Slic3r21FillArchimedeanChordsD0Ev @1516
    _ZN6Slic3r21FillArchimedeanChordsD1Ev @1517
    _ZN6Slic3r21InvalidPrintExceptionD0Ev @1518
    _ZN6Slic3r21InvalidPrintExceptionD1Ev @1519
    _ZN6Slic3r21escape_strings_cstyleERKSt6vectorINSt7__cxx1112basic_stringIcSt11char_traitsIcESaIcEEESaIS6_EE @1520
    _ZN6Slic3r22BadOptionTypeExceptionD0Ev @1521
    _ZN6Slic3r22BadOptionTypeExceptionD1Ev @1522
    _ZN6Slic3r22FillAlignedRectilinearD0Ev @1523
    _ZN6Slic3r22FillAlignedRectilinearD1Ev @1524
    _ZN6Slic3r22InvalidOptionExceptionD0Ev @1525
    _ZN6Slic3r22InvalidOptionExceptionD1Ev @1526
    _ZN6Slic3r22PerimeterGeneratorLoopC1ERKS0_ @1527
    _ZN6Slic3r22PerimeterGeneratorLoopD1Ev @1528
    _ZN6Slic3r22UnknownOptionExceptionD0Ev @1529
    _ZN6Slic3r22UnknownOptionExceptionD1Ev @1530
    _ZN6Slic3r22cli_actions_config_defE @1531 DATA
    _ZN6Slic3r22unescape_string_cstyleERKNSt7__cxx1112basic_stringIcSt11char_traitsIcESaIcEEERS5_ @1532
    _ZN6Slic3r23ConfigOptionEnumGeneric11deserializeENSt7__cxx1112basic_stringIcSt11char_traitsIcESaIcEEEb @1533
    _ZN6Slic3r23ConfigOptionEnumGenericD0Ev @1534
    _ZN6Slic3r23ConfigOptionEnumGenericD1Ev @1535
    _ZN6Slic3r23unescape_strings_cstyleERKNSt7__cxx1112basic_stringIcSt11char_traitsIcESaIcEEERSt6vectorIS5_SaIS5_EE @1536
    _ZN6Slic3r24cli_transform_config_defE @1537 DATA
    _ZN6Slic3r25ExtrusionEntityCollection4swapERS0_ @1538
    _ZN6Slic3r25ExtrusionEntityCollection5clearEv @1539
    _ZN6Slic3r25ExtrusionEntityCollection6appendERKNS_15ExtrusionEntityE @1540
    _ZN6Slic3r25ExtrusionEntityCollection6appendERKSt6vectorINS_13ExtrusionPathESaIS2_EE @1541
    _ZN6Slic3r25ExtrusionEntityCollection6appendERKSt6vectorINS_8PolylineESaIS2_EERKNS_13ExtrusionPathE @1542
    _ZN6Slic3r25ExtrusionEntityCollection6appendERKSt6vectorIPNS_15ExtrusionEntityESaIS3_EE @1543
    _ZN6Slic3r25ExtrusionEntityCollection6removeEy @1544
    _ZN6Slic3r25ExtrusionEntityCollection7replaceEyRKNS_15ExtrusionEntityE @1545
    _ZN6Slic3r25ExtrusionEntityCollection7reverseEv @1546
    _ZN6Slic3r25ExtrusionEntityCollectionC1ERKS0_ @1547
    _ZN6Slic3r25ExtrusionEntityCollectionC1ERKSt6vectorINS_13ExtrusionPathESaIS2_EE @1548
    _ZN6Slic3r25ExtrusionEntityCollectionC2ERKS0_ @1549
    _ZN6Slic3r25ExtrusionEntityCollectionC2ERKSt6vectorINS_13ExtrusionPathESaIS2_EE @1550
    _ZN6Slic3r25ExtrusionEntityCollectionD0Ev @1551
    _ZN6Slic3r25ExtrusionEntityCollectionD1Ev @1552
    _ZN6Slic3r25ExtrusionEntityCollectionD2Ev @1553
    _ZN6Slic3r25ExtrusionEntityCollectionaSERKS0_ @1554
    _ZN6Slic3r26ConfigOptionFloatOrPercent11deserializeENSt7__cxx1112basic_stringIcSt11char_traitsIcESaIcEEEb @1555
    _ZN6Slic3r26ConfigOptionFloatOrPercent3setERKNS_12ConfigOptionE @1556
    _ZN6Slic3r26ConfigOptionFloatOrPercent6setIntEi @1557
    _ZN6Slic3r26ConfigOptionFloatOrPercent8setFloatEd @1558
    _ZN6Slic3r26ConfigOptionFloatOrPercentD0Ev @1559
    _ZN6Slic3r26ConfigOptionFloatOrPercentD1Ev @1560
    _ZN6Slic3r28AddOuterPolyNodeToExPolygonsERN10ClipperLib8PolyNodeEPSt6vectorINS_9ExPolygonESaIS4_EE @1561
    _ZN6Slic3r2IO10extensionsB5cxx11E @1562 DATA
    _ZN6Slic3r2IO11write_modelB5cxx11E @1563 DATA
    _ZN6Slic3r2IO16AMFParserContext10charactersEPKci @1564
    _ZN6Slic3r2IO16AMFParserContext10charactersEPvPKci @1565
    _ZN6Slic3r2IO16AMFParserContext10endElementEPKc @1566
    _ZN6Slic3r2IO16AMFParserContext10endElementEPvPKc @1567
    _ZN6Slic3r2IO16AMFParserContext11endDocumentEv @1568
    _ZN6Slic3r2IO16AMFParserContext12startElementEPKcPS3_ @1569
    _ZN6Slic3r2IO16AMFParserContext12startElementEPvPKcPS4_ @1570
    _ZN6Slic3r2IO16AMFParserContextD1Ev @1571
    _ZN6Slic3r2IO16TMFParserContext10add_volumeEiib @1572
    _ZN6Slic3r2IO16TMFParserContext10charactersEPKci @1573
    _ZN6Slic3r2IO16TMFParserContext10charactersEPvPKci @1574
    _ZN6Slic3r2IO16TMFParserContext10endElementEPvPKc @1575
    _ZN6Slic3r2IO16TMFParserContext10endElementEv @1576
    _ZN6Slic3r2IO16TMFParserContext11endDocumentEv @1577
    _ZN6Slic3r2IO16TMFParserContext12startElementEPKcPS3_ @1578
    _ZN6Slic3r2IO16TMFParserContext12startElementEPvPKcPS4_ @1579
    _ZN6Slic3r2IO16TMFParserContext13extract_trafoENSt7__cxx1112basic_stringIcSt11char_traitsIcESaIcEEERNS_20TransformationMatrixE @1580
    _ZN6Slic3r2IO16TMFParserContext13get_attributeEPPKcS3_ @1581
    _ZN6Slic3r2IO16TMFParserContext4stopEv @1582
    _ZN6Slic3r2IO16TMFParserContextC1EP16XML_ParserStructPNS_5ModelE @1583
    _ZN6Slic3r2IO16TMFParserContextC2EP16XML_ParserStructPNS_5ModelE @1584
    _ZN6Slic3r2IO16load_amf_archiveEPKcPNS_5ModelEb @1585
    _ZN6Slic3r2IO26extract_model_from_archiveER14mz_zip_archiveRK24mz_zip_archive_file_statPNS_5ModelEb @1586
    _ZN6Slic3r2IO3AMF4readENSt7__cxx1112basic_stringIcSt11char_traitsIcESaIcEEEPNS_5ModelE @1587
    _ZN6Slic3r2IO3AMF5writeERKNS_5ModelENSt7__cxx1112basic_stringIcSt11char_traitsIcESaIcEEE @1588
    _ZN6Slic3r2IO3OBJ4readENSt7__cxx1112basic_stringIcSt11char_traitsIcESaIcEEEPNS_12TriangleMeshE @1589
    _ZN6Slic3r2IO3OBJ4readENSt7__cxx1112basic_stringIcSt11char_traitsIcESaIcEEEPNS_5ModelE @1590
    _ZN6Slic3r2IO3OBJ5writeERKNS_12TriangleMeshENSt7__cxx1112basic_stringIcSt11char_traitsIcESaIcEEE @1591
    _ZN6Slic3r2IO3OBJ5writeERKNS_5ModelENSt7__cxx1112basic_stringIcSt11char_traitsIcESaIcEEE @1592
    _ZN6Slic3r2IO3POV5writeERKNS_12TriangleMeshENSt7__cxx1112basic_stringIcSt11char_traitsIcESaIcEEE @1593
    _ZN6Slic3r2IO3POV5writeERKNS_5ModelENSt7__cxx1112basic_stringIcSt11char_traitsIcESaIcEEE @1594
    _ZN6Slic3r2IO3STL4readENSt7__cxx1112basic_stringIcSt11char_traitsIcESaIcEEEPNS_12TriangleMeshE @1595
    _ZN6Slic3r2IO3STL4readENSt7__cxx1112basic_stringIcSt11char_traitsIcESaIcEEEPNS_5ModelE @1596
    _ZN6Slic3r2IO3STL5writeERKNS_12TriangleMeshENSt7__cxx1112basic_stringIcSt11char_traitsIcESaIcEEEb @1597
    _ZN6Slic3r2IO3STL5writeERKNS_5ModelENSt7__cxx1112basic_stringIcSt11char_traitsIcESaIcEEE @1598
    _ZN6Slic3r2IO3STL5writeERKNS_5ModelENSt7__cxx1112basic_stringIcSt11char_traitsIcESaIcEEEb @1599
    _ZN6Slic3r2IO3TMF4readENSt7__cxx1112basic_stringIcSt11char_traitsIcESaIcEEEPNS_5ModelE @1600
    _ZN6Slic3r2IO3TMF5writeERKNS_5ModelENSt7__cxx1112basic_stringIcSt11char_traitsIcESaIcEEE @1601
    _ZN6Slic3r2IO9TMFEditor10read_modelEv @1602
    _ZN6Slic3r2IO9TMFEditor11consume_TMFEv @1603
    _ZN6Slic3r2IO9TMFEditor11produce_TMFEv @1604
    _ZN6Slic3r2IO9TMFEditor11write_buildERN5boost6nowide14basic_ofstreamIcSt11char_traitsIcEEE @1605
    _ZN6Slic3r2IO9TMFEditor11write_modelEv @1606
    _ZN6Slic3r2IO9TMFEditor11write_typesEv @1607
    _ZN6Slic3r2IO9TMFEditor12write_objectERN5boost6nowide14basic_ofstreamIcSt11char_traitsIcEEEPKNS_11ModelObjectEi @1608
    _ZN6Slic3r2IO9TMFEditor14write_metadataERN5boost6nowide14basic_ofstreamIcSt11char_traitsIcEEE @1609
    _ZN6Slic3r2IO9TMFEditor19write_relationshipsEv @1610
    _ZN6Slic3r2IO9TMFEditorC1ENSt7__cxx1112basic_stringIcSt11char_traitsIcESaIcEEEPNS_5ModelE @1611
    _ZN6Slic3r2IO9TMFEditorD1Ev @1612
    _ZN6Slic3r2IO9TMFEditorD2Ev @1613
    _ZN6Slic3r31ClipperPath_to_Slic3rMultiPointINS_7PolygonEEET_RKSt6vectorIN10ClipperLib8IntPointESaIS5_EE @1614
    _ZN6Slic3r31Slic3rMultiPoint_to_ClipperPathERKNS_10MultiPointE @1615
    _ZN6Slic3r32ClipperPaths_to_Slic3rExPolygonsERKSt6vectorIS0_IN10ClipperLib8IntPointESaIS2_EESaIS4_EE @1616
    _ZN6Slic3r33ClipperPaths_to_Slic3rMultiPointsISt6vectorINS_7PolygonESaIS2_EEEET_RKS1_IS1_IN10ClipperLib8IntPointESaIS7_EESaIS9_EE @1617
    _ZN6Slic3r33ClipperPaths_to_Slic3rMultiPointsISt6vectorINS_8PolylineESaIS2_EEEET_RKS1_IS1_IN10ClipperLib8IntPointESaIS7_EESaIS9_EE @1618
    _ZN6Slic3r33Slic3rMultiPoints_to_ClipperPathsISt6vectorINS_7PolygonESaIS2_EEEES1_IS1_IN10ClipperLib8IntPointESaIS6_EESaIS8_EERKT_ @1619
    _ZN6Slic3r33Slic3rMultiPoints_to_ClipperPathsISt6vectorINS_8PolylineESaIS2_EEEES1_IS1_IN10ClipperLib8IntPointESaIS6_EESaIS8_EERKT_ @1620
    _ZN6Slic3r4Fill12fill_surfaceERKNS_7SurfaceE @1621
    _ZN6Slic3r4Fill13new_from_typeENS_13InfillPatternE @1622
    _ZN6Slic3r4Fill13new_from_typeERKNSt7__cxx1112basic_stringIcSt11char_traitsIcESaIcEEE @1623
    _ZN6Slic3r4Fill20_fill_surface_singleEjRKSt4pairIfNS_5PointEERNS_9ExPolygonEPSt6vectorINS_8PolylineESaIS9_EE @1624
    _ZN6Slic3r4Flow11_auto_widthENS_8FlowRoleEff @1625
    _ZN6Slic3r4Flow11set_spacingEf @1626
    _ZN6Slic3r4Flow13_bridge_widthEff @1627
    _ZN6Slic3r4Flow13solid_spacingIdEET_S2_S2_ @1628
    _ZN6Slic3r4Flow13solid_spacingIiEET_S2_S2_ @1629
    _ZN6Slic3r4Flow13solid_spacingIxEET_S2_S2_ @1630
    _ZN6Slic3r4Flow16new_from_spacingEfffb @1631
    _ZN6Slic3r4Flow19_width_from_spacingEfffb @1632
    _ZN6Slic3r4Flow21new_from_config_widthENS_8FlowRoleERKNS_26ConfigOptionFloatOrPercentEfff @1633
    _ZN6Slic3r4Line10extend_endEd @1634
    _ZN6Slic3r4Line12extend_startEd @1635
    _ZN6Slic3r4Line5scaleEd @1636
    _ZN6Slic3r4Line6rotateEdRKNS_5PointE @1637
    _ZN6Slic3r4Line7reverseEv @1638
    _ZN6Slic3r4Line9translateEdd @1639
    _ZN6Slic3r4_Log10_has_topicERKNSt7__cxx1112basic_stringIcSt11char_traitsIcESaIcEEE @1640
    _ZN6Slic3r4_Log11clear_levelENS_5log_tE @1641
    _ZN6Slic3r4_Log11clear_topicERKNSt7__cxx1112basic_stringIcSt11char_traitsIcESaIcEEE @1642
    _ZN6Slic3r4_Log11fatal_errorEPKcPKw @1643
    _ZN6Slic3r4_Log11fatal_errorEPKcS2_ @1644
    _ZN6Slic3r4_Log11fatal_errorEPKcb @1645
    _ZN6Slic3r4_Log11fatal_errorERKNSt7__cxx1112basic_stringIcSt11char_traitsIcESaIcEEERKNS2_IwS3_IwESaIwEEE @1646
    _ZN6Slic3r4_Log11fatal_errorERKNSt7__cxx1112basic_stringIcSt11char_traitsIcESaIcEEES8_ @1647
    _ZN6Slic3r4_Log11fatal_errorERKNSt7__cxx1112basic_stringIcSt11char_traitsIcESaIcEEEb @1648
    _ZN6Slic3r4_Log14_has_log_levelENS_5log_tE @1649
    _ZN6Slic3r4_Log3rawEPKc @1650
    _ZN6Slic3r4_Log3rawEPKw @1651
    _ZN6Slic3r4_Log3rawERKNSt7__cxx1112basic_stringIcSt11char_traitsIcESaIcEEE @1652
    _ZN6Slic3r4_Log3rawERKNSt7__cxx1112basic_stringIwSt11char_traitsIwESaIwEEE @1653
    _ZN6Slic3r4_Log3rawEv @1654
    _ZN6Slic3r4_Log4infoEPKcPKw @1655
    _ZN6Slic3r4_Log4infoEPKcS2_ @1656
    _ZN6Slic3r4_Log4infoEPKcb @1657
    _ZN6Slic3r4_Log4infoERKNSt7__cxx1112basic_stringIcSt11char_traitsIcESaIcEEERKNS2_IwS3_IwESaIwEEE @1658
    _ZN6Slic3r4_Log4infoERKNSt7__cxx1112basic_stringIcSt11char_traitsIcESaIcEEES8_ @1659
    _ZN6Slic3r4_Log4infoERKNSt7__cxx1112basic_stringIcSt11char_traitsIcESaIcEEEb @1660
    _ZN6Slic3r4_Log4warnEPKcPKw @1661
    _ZN6Slic3r4_Log4warnEPKcS2_ @1662
    _ZN6Slic3r4_Log4warnEPKcb @1663
    _ZN6Slic3r4_Log4warnERKNSt7__cxx1112basic_stringIcSt11char_traitsIcESaIcEEERKNS2_IwS3_IwESaIwEEE @1664
    _ZN6Slic3r4_Log4warnERKNSt7__cxx1112basic_stringIcSt11char_traitsIcESaIcEEES8_ @1665
    _ZN6Slic3r4_Log4warnERKNSt7__cxx1112basic_stringIcSt11char_traitsIcESaIcEEEb @1666
    _ZN6Slic3r4_Log5debugEPKcPKw @1667
    _ZN6Slic3r4_Log5debugEPKcS2_ @1668
    _ZN6Slic3r4_Log5debugEPKcb @1669
    _ZN6Slic3r4_Log5debugERKNSt7__cxx1112basic_stringIcSt11char_traitsIcESaIcEEERKNS2_IwS3_IwESaIwEEE @1670
    _ZN6Slic3r4_Log5debugERKNSt7__cxx1112basic_stringIcSt11char_traitsIcESaIcEEES8_ @1671
    _ZN6Slic3r4_Log5debugERKNSt7__cxx1112basic_stringIcSt11char_traitsIcESaIcEEEb @1672
    _ZN6Slic3r4_Log5errorEPKcPKw @1673
    _ZN6Slic3r4_Log5errorEPKcS2_ @1674
    _ZN6Slic3r4_Log5errorEPKcb @1675
    _ZN6Slic3r4_Log5errorERKNSt7__cxx1112basic_stringIcSt11char_traitsIcESaIcEEERKNS2_IwS3_IwESaIwEEE @1676
    _ZN6Slic3r4_Log5errorERKNSt7__cxx1112basic_stringIcSt11char_traitsIcESaIcEEES8_ @1677
    _ZN6Slic3r4_Log5errorERKNSt7__cxx1112basic_stringIcSt11char_traitsIcESaIcEEEb @1678
    _ZN6Slic3r4_Log8make_logEv @1679
    _ZN6Slic3r4_Log9set_levelENS_5log_tE @1680
    _ZN6Slic3r4_LogC1ERSo @1681
    _ZN6Slic3r4_LogC1Ev @1682
    _ZN6Slic3r4_LogC2ERSo @1683
    _ZN6Slic3r4_LogC2Ev @1684
    _ZN6Slic3r5Layer10add_regionEPNS_11PrintRegionE @1685
    _ZN6Slic3r5Layer10make_fillsEv @1686
    _ZN6Slic3r5Layer11make_slicesEv @1687
    _ZN6Slic3r5Layer12merge_slicesEv @1688
    _ZN6Slic3r5Layer13clear_regionsEv @1689
    _ZN6Slic3r5Layer13delete_regionEi @1690
    _ZN6Slic3r5Layer15make_perimetersEv @1691
    _ZN6Slic3r5Layer20detect_surfaces_typeEv @1692
    _ZN6Slic3r5Layer25process_external_surfacesEv @1693
    _ZN6Slic3r5Layer6set_idEy @1694
    _ZN6Slic3r5LayerC1EyPNS_11PrintObjectEddd @1695
    _ZN6Slic3r5LayerC2EyPNS_11PrintObjectEddd @1696
    _ZN6Slic3r5LayerD0Ev @1697
    _ZN6Slic3r5LayerD1Ev @1698
    _ZN6Slic3r5LayerD2Ev @1699
    _ZN6Slic3r5Model10add_objectERKNS_11ModelObjectEb @1700
    _ZN6Slic3r5Model10add_objectEv @1701
    _ZN6Slic3r5Model12add_materialENSt7__cxx1112basic_stringIcSt11char_traitsIcESaIcEEE @1702
    _ZN6Slic3r5Model12add_materialENSt7__cxx1112basic_stringIcSt11char_traitsIcESaIcEEERKNS_13ModelMaterialE @1703
    _ZN6Slic3r5Model12get_materialENSt7__cxx1112basic_stringIcSt11char_traitsIcESaIcEEE @1704
    _ZN6Slic3r5Model13clear_objectsEv @1705
    _ZN6Slic3r5Model13delete_objectEy @1706
    _ZN6Slic3r5Model14read_from_fileENSt7__cxx1112basic_stringIcSt11char_traitsIcESaIcEEE @1707
    _ZN6Slic3r5Model15align_to_groundEv @1708
    _ZN6Slic3r5Model15arrange_objectsEdPKNS_12BoundingBoxfE @1709
    _ZN6Slic3r5Model15clear_materialsEv @1710
    _ZN6Slic3r5Model15delete_materialENSt7__cxx1112basic_stringIcSt11char_traitsIcESaIcEEE @1711
    _ZN6Slic3r5Model17duplicate_objectsEydPKNS_12BoundingBoxfE @1712
    _ZN6Slic3r5Model21add_default_instancesEv @1713
    _ZN6Slic3r5Model22duplicate_objects_gridEyyd @1714
    _ZN6Slic3r5Model24convert_multipart_objectEv @1715
    _ZN6Slic3r5Model25align_instances_to_originEv @1716
    _ZN6Slic3r5Model29center_instances_around_pointERKNS_6PointfE @1717
    _ZN6Slic3r5Model4swapERS0_ @1718
    _ZN6Slic3r5Model5mergeERKS0_ @1719
    _ZN6Slic3r5Model5splitEv @1720
    _ZN6Slic3r5Model6repairEv @1721
    _ZN6Slic3r5Model9duplicateEydPKNS_12BoundingBoxfE @1722
    _ZN6Slic3r5Model9translateEddd @1723
    _ZN6Slic3r5ModelC1ERKS0_ @1724
    _ZN6Slic3r5ModelC1Ev @1725
    _ZN6Slic3r5ModelC2ERKS0_ @1726
    _ZN6Slic3r5ModelC2Ev @1727
    _ZN6Slic3r5ModelD1Ev @1728
    _ZN6Slic3r5ModelD2Ev @1729
    _ZN6Slic3r5ModelaSES0_ @1730
    _ZN6Slic3r5Point13align_to_gridERKS0_S2_ @1731
    _ZN6Slic3r5Point5scaleEd @1732
    _ZN6Slic3r5Point6rotateEd @1733
    _ZN6Slic3r5Point6rotateEdRKS0_ @1734
    _ZN6Slic3r5Point9new_scaleENS_6PointfE @1735
    _ZN6Slic3r5Point9translateERKS0_ @1736
    _ZN6Slic3r5Point9translateEdd @1737
    _ZN6Slic3r5PointC1Edd @1738
    _ZN6Slic3r5PointC2Edd @1739
    _ZN6Slic3r5Print10_make_brimEv @1740
    _ZN6Slic3r5Print10add_regionEv @1741
    _ZN6Slic3r5Print10make_skirtEv @1742
    _ZN6Slic3r5Print12apply_configENS_18DynamicPrintConfigE @1743
    _ZN6Slic3r5Print12apply_configESt10shared_ptrINS_6ConfigEE @1744
    _ZN6Slic3r5Print12export_gcodeENSt7__cxx1112basic_stringIcSt11char_traitsIcESaIcEEEb @1745
    _ZN6Slic3r5Print12export_gcodeERSob @1746
    _ZN6Slic3r5Print13clear_objectsEv @1747
    _ZN6Slic3r5Print13clear_regionsEv @1748
    _ZN6Slic3r5Print13delete_objectEy @1749
    _ZN6Slic3r5Print13delete_regionEy @1750
    _ZN6Slic3r5Print13reload_objectEy @1751
    _ZN6Slic3r5Print15invalidate_stepENS_9PrintStepE @1752
    _ZN6Slic3r5Print15output_filenameB5cxx11Ev @1753
    _ZN6Slic3r5Print15output_filepathERKNSt7__cxx1112basic_stringIcSt11char_traitsIcESaIcEEE @1754
    _ZN6Slic3r5Print16_simplify_slicesEd @1755
    _ZN6Slic3r5Print16add_model_objectEPNS_11ModelObjectEi @1756
    _ZN6Slic3r5Print20invalidate_all_stepsEv @1757
    _ZN6Slic3r5Print22reload_model_instancesEv @1758
    _ZN6Slic3r5Print26invalidate_state_by_configERKNS_15PrintConfigBaseE @1759
    _ZN6Slic3r5Print32_region_config_from_model_volumeERKNS_11ModelVolumeE @1760
    _ZN6Slic3r5Print7processEv @1761
    _ZN6Slic3r5Print9make_brimEv @1762
    _ZN6Slic3r5PrintC1Ev @1763
    _ZN6Slic3r5PrintC2Ev @1764
    _ZN6Slic3r5PrintD1Ev @1765
    _ZN6Slic3r5PrintD2Ev @1766
    _ZN6Slic3r6Linef35scaleEd @1767
    _ZN6Slic3r6Pointf5scaleEd @1768
    _ZN6Slic3r6Pointf6rotateEd @1769
    _ZN6Slic3r6Pointf6rotateEdRKS0_ @1770
    _ZN6Slic3r6Pointf9translateERKS0_ @1771
    _ZN6Slic3r6Pointf9translateEdd @1772
    _ZN6Slic3r6PointfdVERKd @1773
    _ZN6Slic3r6offsetERKNS_7SurfaceEfdN10ClipperLib8JoinTypeEd @1774
    _ZN6Slic3r6offsetERKSt6vectorINS_7PolygonESaIS1_EEfdN10ClipperLib8JoinTypeEd @1775
    _ZN6Slic3r6offsetERKSt6vectorINS_8PolylineESaIS1_EEfdN10ClipperLib8JoinTypeEd @1776
    _ZN6Slic3r7Pointf35scaleEd @1777
    _ZN6Slic3r7Pointf39translateERKS0_ @1778
    _ZN6Slic3r7Pointf39translateEddd @1779
    _ZN6Slic3r7Polygon14make_clockwiseEv @1780
    _ZN6Slic3r7Polygon15douglas_peuckerEd @1781
    _ZN6Slic3r7Polygon22make_counter_clockwiseEv @1782
    _ZN6Slic3r7Polygon23remove_collinear_pointsEv @1783
    _ZN6Slic3r7Polygon32remove_vertical_collinear_pointsEx @1784
    _ZN6Slic3r7Polygon9new_scaleERKSt6vectorINS_6PointfESaIS2_EE @1785
    _ZN6Slic3r7PolygonixEy @1786
    _ZN6Slic3r7_offsetERKSt6vectorINS_7PolygonESaIS1_EEfdN10ClipperLib8JoinTypeEd @1787
    _ZN6Slic3r7_offsetERKSt6vectorINS_8PolylineESaIS1_EEfdN10ClipperLib8JoinTypeEd @1788
    _ZN6Slic3r7offset2ERKSt6vectorINS_7PolygonESaIS1_EEffdN10ClipperLib8JoinTypeEd @1789
    _ZN6Slic3r8Extruder5resetEv @1790
    _ZN6Slic3r8Extruder7extrudeEd @1791
    _ZN6Slic3r8Extruder7retractEdd @1792
    _ZN6Slic3r8Extruder9unretractEv @1793
    _ZN6Slic3r8ExtruderC1EjPNS_11GCodeConfigE @1794
    _ZN6Slic3r8ExtruderC2EjPNS_11GCodeConfigE @1795
    _ZN6Slic3r8ExtruderD0Ev @1796
    _ZN6Slic3r8ExtruderD1Ev @1797
    _ZN6Slic3r8FillGrid20_fill_surface_singleEjRKSt4pairIfNS_5PointEERNS_9ExPolygonEPSt6vectorINS_8PolylineESaIS9_EE @1798
    _ZN6Slic3r8FillGridD0Ev @1799
    _ZN6Slic3r8FillGridD1Ev @1800
    _ZN6Slic3r8Geometry10MedialAxis13validate_edgeEPKN5boost7polygon12voronoi_edgeIdEE @1801
    _ZN6Slic3r8Geometry10MedialAxis22process_edge_neighborsEPKN5boost7polygon12voronoi_edgeIdEEPNS_13ThickPolylineE @1802
    _ZN6Slic3r8Geometry10MedialAxis5buildEPSt6vectorINS_13ThickPolylineESaIS3_EE @1803
    _ZN6Slic3r8Geometry10MedialAxis5buildEPSt6vectorINS_8PolylineESaIS3_EE @1804
    _ZN6Slic3r8Geometry11convex_hullERKSt6vectorINS_7PolygonESaIS2_EE @1805
    _ZN6Slic3r8Geometry11convex_hullESt6vectorINS_5PointESaIS2_EE @1806
    _ZN6Slic3r8Geometry11rad2deg_dirEd @1807
    _ZN6Slic3r8Geometry12chained_pathERKSt6vectorINS_5PointESaIS2_EERS1_IySaIyEE @1808
    _ZN6Slic3r8Geometry12chained_pathERKSt6vectorINS_5PointESaIS2_EERS1_IySaIyEES2_ @1809
    _ZN6Slic3r8Geometry18chained_path_itemsISt6vectorIPN10ClipperLib8PolyNodeESaIS5_EEEEvRS2_INS_5PointESaIS8_EERT_SD_ @1810
    _ZN6Slic3r8Geometry19directions_parallelEddd @1811
    _ZN6Slic3r8Geometry20circle_taubin_newtonERKN9__gnu_cxx17__normal_iteratorIPKNS_5PointESt6vectorIS3_SaIS3_EEEESB_y @1812
    _ZN6Slic3r8Geometry20circle_taubin_newtonERKN9__gnu_cxx17__normal_iteratorIPKNS_6PointfESt6vectorIS3_SaIS3_EEEESB_y @1813
    _ZN6Slic3r8Geometry20circle_taubin_newtonERKSt6vectorINS_5PointESaIS2_EEy @1814
    _ZN6Slic3r8Geometry20circle_taubin_newtonERKSt6vectorINS_6PointfESaIS2_EEy @1815
    _ZN6Slic3r8Geometry4areaINS_7PolygonEEEdRKSt6vectorIT_SaIS4_EE @1816
    _ZN6Slic3r8Geometry6linintEddddd @1817
    _ZN6Slic3r8Geometry7arrangeEyRKNS_6PointfEdPKNS_12BoundingBoxfERSt6vectorIS1_SaIS1_EE @1818
    _ZN6Slic3r8Geometry7deg2radEd @1819
    _ZN6Slic3r8Geometry7rad2degEd @1820
    _ZN6Slic3r8Geometry8containsINS_7PolygonEEEbRKSt6vectorIT_SaIS4_EERKNS_5PointE @1821
    _ZN6Slic3r8Geometry8containsINS_9ExPolygonEEEbRKSt6vectorIT_SaIS4_EERKNS_5PointE @1822
    _ZN6Slic3r8Polyline10clip_startEd @1823
    _ZN6Slic3r8Polyline10extend_endEd @1824
    _ZN6Slic3r8Polyline12extend_startEd @1825
    _ZN6Slic3r8Polyline22simplify_by_visibilityINS_19ExPolygonCollectionEEEvRKT_ @1826
    _ZN6Slic3r8Polyline22simplify_by_visibilityINS_9ExPolygonEEEvRKT_ @1827
    _ZN6Slic3r8Polyline8clip_endEd @1828
    _ZN6Slic3r8Polyline8simplifyEd @1829
    _ZN6Slic3r8SLAPrint13_infill_layerEyPKNS_4FillE @1830
    _ZN6Slic3r8SLAPrint5LayerC1EOS1_ @1831
    _ZN6Slic3r8SLAPrint5LayerD1Ev @1832
    _ZN6Slic3r8SLAPrint5sliceEv @1833
    _ZN6Slic3r8SLAPrintD1Ev @1834
    _ZN6Slic3r8_clipperEN10ClipperLib8ClipTypeERKSt6vectorINS_7PolygonESaIS3_EES7_b @1835
    _ZN6Slic3r8_offset2ERKSt6vectorINS_7PolygonESaIS1_EEffdN10ClipperLib8JoinTypeEd @1836
    _ZN6Slic3r8union_ptERKSt6vectorINS_7PolygonESaIS1_EEb @1837
    _ZN6Slic3r9ConfigDef3addERKNSt7__cxx1112basic_stringIcSt11char_traitsIcESaIcEEENS_16ConfigOptionTypeE @1838
    _ZN6Slic3r9ConfigDef3addERKNSt7__cxx1112basic_stringIcSt11char_traitsIcESaIcEEERKNS_15ConfigOptionDefE @1839
    _ZN6Slic3r9ConfigDef5mergeERKS0_ @1840
    _ZN6Slic3r9ExPolygon22remove_colinear_pointsEv @1841
    _ZN6Slic3r9ExPolygon32remove_vertical_collinear_pointsEx @1842
    _ZN6Slic3r9ExPolygon5scaleEd @1843
    _ZN6Slic3r9ExPolygon6rotateEd @1844
    _ZN6Slic3r9ExPolygon6rotateEdRKNS_5PointE @1845
    _ZN6Slic3r9ExPolygon9translateEdd @1846
    _ZN6Slic3r9ExPolygonC1ERKS0_ @1847
    _ZN6Slic3r9ExPolygonD1Ev @1848
    _ZN6Slic3r9ExceptionD0Ev @1849
    _ZN6Slic3r9ExceptionD1Ev @1850
    _ZN6Slic3r9FillCubic20_fill_surface_singleEjRKSt4pairIfNS_5PointEERNS_9ExPolygonEPSt6vectorINS_8PolylineESaIS9_EE @1851
    _ZN6Slic3r9FillCubicD0Ev @1852
    _ZN6Slic3r9FillCubicD1Ev @1853
    _ZN6Slic3r9FillStars20_fill_surface_singleEjRKSt4pairIfNS_5PointEERNS_9ExPolygonEPSt6vectorINS_8PolylineESaIS9_EE @1854
    _ZN6Slic3r9FillStarsD0Ev @1855
    _ZN6Slic3r9FillStarsD1Ev @1856
    _ZN6Slic3r9append_toINS_7PolygonEEEvRSt6vectorIT_SaIS3_EERKS5_ @1857
    _ZN6Slic3r9offset_exERKSt6vectorINS_7PolygonESaIS1_EEfdN10ClipperLib8JoinTypeEd @1858
    _ZN6Slic3r9offset_exERKSt6vectorINS_9ExPolygonESaIS1_EEfdN10ClipperLib8JoinTypeEd @1859
    _ZN6Slic3rdvERKNS_6PointfERKd @1860
    _ZN6Slic3reqERKNS_12ConfigOptionES2_ @1861
    _ZN6Slic3rlsERSoRKNS_5PointE @1862
    _ZN6Slic3rlsERSoRKNS_6PointfE @1863
    _ZN6Slic3rlsERSoRKNS_7Pointf3E @1864
    _ZN6Slic3rlsERSoRKSt6vectorINS_9ExPolygonESaIS2_EE @1865
    _ZN6Slic3rmiERKNS_5PointES2_ @1866
    _ZN6Slic3rmlEdRKNS_5PointE @1867
    _ZN6Slic3rneERKNS_12ConfigOptionES2_ @1868
    _ZN6Slic3rplERKNS_5PointES2_ @1869
    _ZN6Slic3rplERKNS_6PointfES2_ @1870
    _ZN7BSplineIdE11coefficientEi @1871
    _ZN7BSplineIdE5slopeEd @1872
    _ZN7BSplineIdE5solveEPKd @1873
    _ZN7BSplineIdE8evaluateEd @1874
    _ZN7BSplineIdEC1EPKdiS2_dii @1875
    _ZN7BSplineIdEC1ER11BSplineBaseIdEPKd @1876
    _ZN7BSplineIdEC2EPKdiS2_dii @1877
    _ZN7BSplineIdEC2ER11BSplineBaseIdEPKd @1878
    _ZN7BSplineIdED0Ev @1879
    _ZN7BSplineIdED1Ev @1880
    _ZN7BSplineIdED2Ev @1881
    _ZN7tinyobj10material_tC1ERKS0_ @1882
    _ZN7tinyobj10material_tD1Ev @1883
    _ZN7tinyobj14MaterialReaderD0Ev @1884
    _ZN7tinyobj14MaterialReaderD1Ev @1885
    _ZN7tinyobj14MaterialReaderD2Ev @1886
    _ZN7tinyobj18MaterialFileReaderD0Ev @1887
    _ZN7tinyobj18MaterialFileReaderD1Ev @1888
    _ZN7tinyobj18MaterialFileReaderclERKNSt7__cxx1112basic_stringIcSt11char_traitsIcESaIcEEEPSt6vectorINS_10material_tESaISA_EEPSt3mapIS6_iSt4lessIS6_ESaISt4pairIS7_iEEEPS6_ @1889
    _ZN7tinyobj19LoadObjWithCallbackERSiRKNS_11callback_t_EPvPNS_14MaterialReaderEPNSt7__cxx1112basic_stringIcSt11char_traitsIcESaIcEEE @1890
    _ZN7tinyobj20MaterialStreamReaderD0Ev @1891
    _ZN7tinyobj20MaterialStreamReaderD1Ev @1892
    _ZN7tinyobj20MaterialStreamReaderclERKNSt7__cxx1112basic_stringIcSt11char_traitsIcESaIcEEEPSt6vectorINS_10material_tESaISA_EEPSt3mapIS6_iSt4lessIS6_ESaISt4pairIS7_iEEEPS6_ @1893
    _ZN7tinyobj5tag_tC1ERKS0_ @1894
    _ZN7tinyobj5tag_tD1Ev @1895
    _ZN7tinyobj6mesh_tD1Ev @1896
    _ZN7tinyobj7LoadMtlEPSt3mapINSt7__cxx1112basic_stringIcSt11char_traitsIcESaIcEEEiSt4lessIS6_ESaISt4pairIKS6_iEEEPSt6vectorINS_10material_tESaISG_EEPSiPS6_ @1897
    _ZN7tinyobj7LoadObjEPNS_8attrib_tEPSt6vectorINS_7shape_tESaIS3_EEPS2_INS_10material_tESaIS7_EEPNSt7__cxx1112basic_stringIcSt11char_traitsIcESaIcEEEPKcSJ_b @1898
    _ZN7tinyobj7LoadObjEPNS_8attrib_tEPSt6vectorINS_7shape_tESaIS3_EEPS2_INS_10material_tESaIS7_EEPNSt7__cxx1112basic_stringIcSt11char_traitsIcESaIcEEEPSiPNS_14MaterialReaderEb @1899
    _ZN8TPPLPoly14SetOrientationEi @1900
    _ZN8TPPLPoly4InitEl @1901
    _ZN8TPPLPoly5ClearEv @1902
    _ZN8TPPLPoly6InvertEv @1903
    _ZN8TPPLPoly8TriangleER9TPPLPointS1_S1_ @1904
    _ZN8TPPLPolyC1ERKS_ @1905
    _ZN8TPPLPolyC1Ev @1906
    _ZN8TPPLPolyC2ERKS_ @1907
    _ZN8TPPLPolyC2Ev @1908
    _ZN8TPPLPolyD1Ev @1909
    _ZN8TPPLPolyD2Ev @1910
    _ZN8TPPLPolyaSERKS_ @1911
    _ZN9__gnu_cxx6__stoaIlicJiEEET0_PFT_PKT1_PPS3_DpT2_EPKcS5_PyS9_ @1912
    _ZNK10ClipperLib16clipperException4whatEv @1913
    _ZNK10ClipperLib7Clipper14IsContributingERKNS_5TEdgeE @1914
    _ZNK10ClipperLib7Clipper17IsEvenOddFillTypeERKNS_5TEdgeE @1915
    _ZNK10ClipperLib7Clipper20IsEvenOddAltFillTypeERKNS_5TEdgeE @1916
    _ZNK10ClipperLib8PolyNode10ChildCountEv @1917
    _ZNK10ClipperLib8PolyNode16GetNextSiblingUpEv @1918
    _ZNK10ClipperLib8PolyNode6IsHoleEv @1919
    _ZNK10ClipperLib8PolyNode6IsOpenEv @1920
    _ZNK10ClipperLib8PolyNode7GetNextEv @1921
    _ZNK10ClipperLib8PolyTree5TotalEv @1922
    _ZNK10ClipperLib8PolyTree8GetFirstEv @1923
    _ZNK13TPPLPartition12ScanLineEdge8IsConvexERK9TPPLPointS3_S3_ @1924
    _ZNK13TPPLPartition12ScanLineEdgeltERKS0_ @1925
    _ZNK13TPPLPartition12VertexSorterclEll @1926
    _ZNK3p2t5Sweep10BasinAngleERKNS_4NodeE @1927
    _ZNK3p2t5Sweep18LargeHole_DontFillEPKNS_4NodeE @1928
    _ZNK3p2t5Sweep18RotateTrianglePairERNS_8TriangleERNS_5PointES2_S4_ @1929
    _ZNK3p2t5Sweep21AngleExceeds90DegreesEPKNS_5PointES3_S3_ @1930
    _ZNK3p2t5Sweep37AngleExceedsPlus90DegreesOrIsNegativeEPKNS_5PointES3_S3_ @1931
    _ZNK3p2t5Sweep5AngleEPKNS_5PointES3_S3_ @1932
    _ZNK3p2t5Sweep8IncircleERKNS_5PointES3_S3_S3_ @1933
    _ZNK3p2t5Sweep9HoleAngleERKNS_4NodeE @1934
    _ZNK3p2t8Triangle16GetDelunayEdgeCWERKNS_5PointE @1935
    _ZNK3p2t8Triangle17GetDelunayEdgeCCWERKNS_5PointE @1936
    _ZNK3p2t8Triangle20GetConstrainedEdgeCWERKNS_5PointE @1937
    _ZNK3p2t8Triangle21GetConstrainedEdgeCCWERKNS_5PointE @1938
    _ZNK3p2t8Triangle5IndexEPKNS_5PointE @1939
    _ZNK3p2t8Triangle9EdgeIndexEPKNS_5PointES3_ @1940
    _ZNK4Marc15ExportMarcSlice6convrtERKN6Slic3r10MultiPointERNS_8PolylineE @1941
    _ZNK4Marc3SVG10get_path_dB5cxx11ERKN6Slic3r10MultiPointEb @1942
    _ZNK4Marc3SVG10get_path_dB5cxx11ERKSt6vectorIN10ClipperLib8IntPointESaIS3_EEdb @1943
    _ZNK4Marc7MarcAPI15output_filepathB5cxx11ERKN6Slic3r5ModelENS1_2IO12ExportFormatE @1944
    _ZNK4Marc8MarcFile10role_colorB5cxx11EPN6Slic3r15ExtrusionEntityE @1945
    _ZNK4Marc8MarcFile13surface_colorB5cxx11EPN6Slic3r7SurfaceE @1946
    _ZNK4Marc8SlmPrint10role_colorB5cxx11EPKN6Slic3r15ExtrusionEntityE @1947
    _ZNK4Marc8SlmPrint13surface_colorB5cxx11EPN6Slic3r7SurfaceE @1948
    _ZNK5boost10error_infoINS_27tag_original_exception_typeEPKSt9type_infoE17name_value_stringB5cxx11Ev @1949
    _ZNK5boost10error_infoINS_27tag_original_exception_typeEPKSt9type_infoE5cloneEv @1950
    _ZNK5boost10filesystem15directory_entry12refresh_implEPNS_6system10error_codeE @1951
    _ZNK5boost10filesystem16filesystem_error4whatEv @1952
    _ZNK5boost10filesystem4path18lexically_relativeERKS1_ @1953
    _ZNK5boost10filesystem4path3endEv @1954
    _ZNK5boost10filesystem4path5beginEv @1955
    _ZNK5boost10filesystem4path9root_pathEv @1956
    _ZNK5boost10filesystem6detail20windows_file_codecvt10do_unshiftER9_MbstatetPcS5_RS5_ @1957
    _ZNK5boost10filesystem6detail20windows_file_codecvt11do_encodingEv @1958
    _ZNK5boost10filesystem6detail20windows_file_codecvt13do_max_lengthEv @1959
    _ZNK5boost10filesystem6detail20windows_file_codecvt16do_always_noconvEv @1960
    _ZNK5boost10filesystem6detail20windows_file_codecvt5do_inER9_MbstatetPKcS6_RS6_PwS8_RS8_ @1961
    _ZNK5boost10filesystem6detail20windows_file_codecvt6do_outER9_MbstatetPKwS6_RS6_PcS8_RS8_ @1962
    _ZNK5boost10filesystem6detail20windows_file_codecvt9do_lengthER9_MbstatetPKcS6_y @1963
    _ZNK5boost10wrapexceptINS_10lock_errorEE5cloneEv @1964
    _ZNK5boost10wrapexceptINS_10lock_errorEE7rethrowEv @1965
    _ZNK5boost10wrapexceptINS_13property_tree10ini_parser16ini_parser_errorEE5cloneEv @1966
    _ZNK5boost10wrapexceptINS_13property_tree10ini_parser16ini_parser_errorEE7rethrowEv @1967
    _ZNK5boost10wrapexceptINS_16bad_lexical_castEE5cloneEv @1968
    _ZNK5boost10wrapexceptINS_16bad_lexical_castEE7rethrowEv @1969
    _ZNK5boost10wrapexceptINS_17bad_function_callEE5cloneEv @1970
    _ZNK5boost10wrapexceptINS_17bad_function_callEE7rethrowEv @1971
    _ZNK5boost10wrapexceptINS_21thread_resource_errorEE5cloneEv @1972
    _ZNK5boost10wrapexceptINS_21thread_resource_errorEE7rethrowEv @1973
    _ZNK5boost10wrapexceptISt9bad_allocE5cloneEv @1974
    _ZNK5boost10wrapexceptISt9bad_allocE7rethrowEv @1975
    _ZNK5boost11multi_index6detail8copy_mapINS1_20sequenced_index_nodeINS1_18ordered_index_nodeINS1_19null_augment_policyENS1_15index_node_baseISt4pairIKNSt7__cxx1112basic_stringIcSt11char_traitsIcESaIcEEENS_13property_tree11basic_ptreeISD_SD_St4lessISD_EEEESaISK_EEEEEEESL_E4findEPSO_ @1976
    _ZNK5boost16bad_lexical_cast4whatEv @1977
    _ZNK5boost16exception_detail10clone_implINS0_10bad_alloc_EE5cloneEv @1978
    _ZNK5boost16exception_detail10clone_implINS0_10bad_alloc_EE7rethrowEv @1979
    _ZNK5boost16exception_detail10clone_implINS0_14bad_exception_EE5cloneEv @1980
    _ZNK5boost16exception_detail10clone_implINS0_14bad_exception_EE7rethrowEv @1981
    _ZNK5boost16exception_detail25error_info_container_impl22diagnostic_informationEPKc @1982
    _ZNK5boost16exception_detail25error_info_container_impl3getERKNS0_10type_info_E @1983
    _ZNK5boost16exception_detail25error_info_container_impl5cloneEv @1984
    _ZNK5boost16exception_detail25error_info_container_impl7add_refEv @1985
    _ZNK5boost16exception_detail25error_info_container_impl7releaseEv @1986
    _ZNK5boost6system10error_code4whatB5cxx11Ev @1987
    _ZNK5boost6system14error_category10equivalentERKNS0_10error_codeEi @1988
    _ZNK5boost6system14error_category10equivalentEiRKNS0_15error_conditionE @1989
    _ZNK5boost6system14error_category23default_error_conditionEi @1990
    _ZNK5boost6system14error_category6failedEi @1991
    _ZNK5boost6system14error_category7messageEiPcy @1992
    _ZNK5boost6system14error_categorycvRKNSt3_V214error_categoryEEv @1993
    _ZNK5boost6system6detail12std_category10equivalentERKSt10error_codei @1994
    _ZNK5boost6system6detail12std_category10equivalentEiRKSt15error_condition @1995
    _ZNK5boost6system6detail12std_category23default_error_conditionEi @1996
    _ZNK5boost6system6detail12std_category4nameEv @1997
    _ZNK5boost6system6detail12std_category7messageB5cxx11Ei @1998
    _ZNK5boost6system6detail21system_error_category23default_error_conditionEi @1999
    _ZNK5boost6system6detail21system_error_category4nameEv @2000
    _ZNK5boost6system6detail21system_error_category7messageB5cxx11Ei @2001
    _ZNK5boost6system6detail21system_error_category7messageEiPcy @2002
    _ZNK5boost6system6detail22generic_error_category4nameEv @2003
    _ZNK5boost6system6detail22generic_error_category7messageB5cxx11Ei @2004
    _ZNK5boost6system6detail22generic_error_category7messageEiPcy @2005
    _ZNK5boost6system6detail22interop_error_category4nameEv @2006
    _ZNK5boost6system6detail22interop_error_category7messageB5cxx11Ei @2007
    _ZNK5boost6system6detail22interop_error_category7messageEiPcy @2008
    _ZNK5boost6thread15get_thread_infoEv @2009
    _ZNK5boost6thread22interruption_requestedEv @2010
    _ZNK5boost6thread6get_idEv @2011
    _ZNK5boost6thread8joinableEv @2012
    _ZNK5boost7polygon13scanline_baseIxE14less_half_edgeclERKSt4pairINS0_10point_dataIxEES6_ES9_ @2013
    _ZNK5boost7polygon13scanline_baseIxE16vertex_half_edgeltERKS3_ @2014
    _ZNK5boost7polygon13scanline_baseIxE21less_vertex_half_edgeclERKNS2_16vertex_half_edgeES6_ @2015
    _ZNK5boost7polygon16polygon_set_dataIxE5cleanEv @2016
    _ZNK5boost7polygon20arbitrary_boolean_opIxE16less_vertex_dataISt4pairIS4_INS0_10point_dataIxEES6_ES4_IiiEEEclERKS9_SC_ @2017
    _ZNK5boost7polygon27polygon_arbitrary_formationIxE20less_half_edge_countclERKSt4pairINS0_10point_dataIxEEiES9_ @2018
    _ZNK5boost7polygon6detail10robust_fptIdEmiERKS3_ @2019
    _ZNK5boost7polygon6detail12extended_intILy64EE1dEv @2020
    _ZNK5boost7polygon6detail12extended_intILy64EEmlEx @2021
    _ZNK5boost7polygon6detail21extended_exponent_fptIdNS1_27extened_exponent_fpt_traitsIdEEEmiERKS5_ @2022
    _ZNK5boost7polygon6detail21extended_exponent_fptIdNS1_27extened_exponent_fpt_traitsIdEEEplERKS5_ @2023
    _ZNK6Slic3r10ConfigBase10getStringsERKNSt7__cxx1112basic_stringIcSt11char_traitsIcESaIcEEE @2024
    _ZNK6Slic3r10ConfigBase10getStringsERKNSt7__cxx1112basic_stringIcSt11char_traitsIcESaIcEEESt6vectorIS6_SaIS6_EE @2025
    _ZNK6Slic3r10ConfigBase12option_throwERKNSt7__cxx1112basic_stringIcSt11char_traitsIcESaIcEEE @2026
    _ZNK6Slic3r10ConfigBase13get_abs_valueERKNSt7__cxx1112basic_stringIcSt11char_traitsIcESaIcEEE @2027
    _ZNK6Slic3r10ConfigBase13get_abs_valueERKNSt7__cxx1112basic_stringIcSt11char_traitsIcESaIcEEEd @2028
    _ZNK6Slic3r10ConfigBase3hasERKNSt7__cxx1112basic_stringIcSt11char_traitsIcESaIcEEE @2029
    _ZNK6Slic3r10ConfigBase4diffB5cxx11ERKS0_ @2030
    _ZNK6Slic3r10ConfigBase4saveERKNSt7__cxx1112basic_stringIcSt11char_traitsIcESaIcEEE @2031
    _ZNK6Slic3r10ConfigBase6equalsERKS0_ @2032
    _ZNK6Slic3r10ConfigBase6getIntERKNSt7__cxx1112basic_stringIcSt11char_traitsIcESaIcEEE @2033
    _ZNK6Slic3r10ConfigBase6getIntERKNSt7__cxx1112basic_stringIcSt11char_traitsIcESaIcEEEi @2034
    _ZNK6Slic3r10ConfigBase6optionERKNSt7__cxx1112basic_stringIcSt11char_traitsIcESaIcEEE @2035
    _ZNK6Slic3r10ConfigBase7getBoolERKNSt7__cxx1112basic_stringIcSt11char_traitsIcESaIcEEE @2036
    _ZNK6Slic3r10ConfigBase7getBoolERKNSt7__cxx1112basic_stringIcSt11char_traitsIcESaIcEEEb @2037
    _ZNK6Slic3r10ConfigBase8getFloatERKNSt7__cxx1112basic_stringIcSt11char_traitsIcESaIcEEE @2038
    _ZNK6Slic3r10ConfigBase8getFloatERKNSt7__cxx1112basic_stringIcSt11char_traitsIcESaIcEEEd @2039
    _ZNK6Slic3r10ConfigBase8validateEv @2040
    _ZNK6Slic3r10ConfigBase9getStringERKNSt7__cxx1112basic_stringIcSt11char_traitsIcESaIcEEE @2041
    _ZNK6Slic3r10ConfigBase9getStringERKNSt7__cxx1112basic_stringIcSt11char_traitsIcESaIcEEES6_ @2042
    _ZNK6Slic3r10ConfigBase9serializeERKNSt7__cxx1112basic_stringIcSt11char_traitsIcESaIcEEE @2043
    _ZNK6Slic3r10FillGyroid15use_bridge_flowEv @2044
    _ZNK6Slic3r10FillGyroid5cloneEv @2045
    _ZNK6Slic3r10MultiPoint10find_pointERKNS_5PointE @2046
    _ZNK6Slic3r10MultiPoint11first_pointEv @2047
    _ZNK6Slic3r10MultiPoint12bounding_boxEv @2048
    _ZNK6Slic3r10MultiPoint12intersectionERKNS_4LineEPNS_5PointE @2049
    _ZNK6Slic3r10MultiPoint18has_boundary_pointERKNS_5PointE @2050
    _ZNK6Slic3r10MultiPoint20has_duplicate_pointsEv @2051
    _ZNK6Slic3r10MultiPoint6lengthEv @2052
    _ZNK6Slic3r10MultiPoint9dump_perlB5cxx11Ev @2053
    _ZNK6Slic3r10MultiPointcvSt6vectorINS_5PointESaIS2_EEEv @2054
    _ZNK6Slic3r10PrintStateINS_15PrintObjectStepEE10is_startedES1_ @2055
    _ZNK6Slic3r10PrintStateINS_15PrintObjectStepEE7is_doneES1_ @2056
    _ZNK6Slic3r10PrintStateINS_9PrintStepEE10is_startedES1_ @2057
    _ZNK6Slic3r10PrintStateINS_9PrintStepEE7is_doneES1_ @2058
    _ZNK6Slic3r11BoundingBox7polygonEPNS_7PolygonE @2059
    _ZNK6Slic3r11BoundingBox7polygonEv @2060
    _ZNK6Slic3r11BoundingBox7rotatedEd @2061
    _ZNK6Slic3r11BoundingBox7rotatedEdRKNS_5PointE @2062
    _ZNK6Slic3r11LayerRegion21infill_area_thresholdEv @2063
    _ZNK6Slic3r11LayerRegion4flowENS_8FlowRoleEbd @2064
    _ZNK6Slic3r11ModelObject10print_infoEv @2065
    _ZNK6Slic3r11ModelObject12facets_countEv @2066
    _ZNK6Slic3r11ModelObject13needed_repairEv @2067
    _ZNK6Slic3r11ModelObject14get_undo_trafoEv @2068
    _ZNK6Slic3r11ModelObject15materials_countEv @2069
    _ZNK6Slic3r11ModelObject16raw_bounding_boxEv @2070
    _ZNK6Slic3r11ModelObject18origin_translationEv @2071
    _ZNK6Slic3r11ModelObject19get_trafo_to_centerEv @2072
    _ZNK6Slic3r11ModelObject21instance_bounding_boxEy @2073
    _ZNK6Slic3r11ModelObject3cutENS_4AxisEdPNS_5ModelE @2074
    _ZNK6Slic3r11ModelObject4meshEv @2075
    _ZNK6Slic3r11ModelObject8raw_meshEv @2076
    _ZNK6Slic3r11ModelVolume11material_idB5cxx11Ev @2077
    _ZNK6Slic3r11ModelVolume12bounding_boxEv @2078
    _ZNK6Slic3r11ModelVolume20get_transformed_meshERKNS_20TransformationMatrixE @2079
    _ZNK6Slic3r11ModelVolume28get_transformed_bounding_boxERKNS_20TransformationMatrixE @2080
    _ZNK6Slic3r11ModelVolume8materialEv @2081
    _ZNK6Slic3r11PrintObject11layer_countEv @2082
    _ZNK6Slic3r11PrintObject12bounding_boxEv @2083
    _ZNK6Slic3r11PrintObject17total_layer_countEv @2084
    _ZNK6Slic3r11PrintObject19adjust_layer_heightEd @2085
    _ZNK6Slic3r11PrintObject19support_layer_countEv @2086
    _ZNK6Slic3r11PrintObject20has_support_materialEv @2087
    _ZNK6Slic3r11PrintObject26support_material_extrudersEv @2088
    _ZNK6Slic3r11PrintObject6copiesEv @2089
    _ZNK6Slic3r11PrintObject9extrudersEv @2090
    _ZNK6Slic3r11PrintRegion4flowENS_8FlowRoleEdbbdRKNS_11PrintObjectE @2091
    _ZNK6Slic3r12ConfigOption10getStringsB5cxx11Ev @2092
    _ZNK6Slic3r12ConfigOption6getIntEv @2093
    _ZNK6Slic3r12ConfigOption7getBoolEv @2094
    _ZNK6Slic3r12ConfigOption8getFloatEv @2095
    _ZNK6Slic3r12ConfigOption9getStringB5cxx11Ev @2096
    _ZNK6Slic3r12StaticConfig4keysB5cxx11Ev @2097
    _ZNK6Slic3r12SupportLayer10is_supportEv @2098
    _ZNK6Slic3r12TriangleMesh11cut_by_gridERKNS_6PointfE @2099
    _ZNK6Slic3r12TriangleMesh11is_manifoldEv @2100
    _ZNK6Slic3r12TriangleMesh11write_asciiERKNSt7__cxx1112basic_stringIcSt11char_traitsIcESaIcEEE @2101
    _ZNK6Slic3r12TriangleMesh12WriteOBJFileERKNSt7__cxx1112basic_stringIcSt11char_traitsIcESaIcEEE @2102
    _ZNK6Slic3r12TriangleMesh12bounding_boxEv @2103
    _ZNK6Slic3r12TriangleMesh12facets_countEv @2104
    _ZNK6Slic3r12TriangleMesh12write_binaryERKNSt7__cxx1112basic_stringIcSt11char_traitsIcESaIcEEE @2105
    _ZNK6Slic3r12TriangleMesh13needed_repairEv @2106
    _ZNK6Slic3r12TriangleMesh20get_transformed_meshERKNS_20TransformationMatrixE @2107
    _ZNK6Slic3r12TriangleMesh21horizontal_projectionEv @2108
    _ZNK6Slic3r12TriangleMesh28get_transformed_bounding_boxERKNS_20TransformationMatrixE @2109
    _ZNK6Slic3r12TriangleMesh3bb3Ev @2110
    _ZNK6Slic3r12TriangleMesh4sizeEv @2111
    _ZNK6Slic3r12TriangleMesh5splitEv @2112
    _ZNK6Slic3r12TriangleMesh5statsEv @2113
    _ZNK6Slic3r12TriangleMesh6centerEv @2114
    _ZNK6Slic3r12TriangleMesh7normalsEv @2115
    _ZNK6Slic3r13DynamicConfig4keysB5cxx11Ev @2116
    _ZNK6Slic3r13DynamicConfig5emptyEv @2117
    _ZNK6Slic3r13ExtrusionLoop10last_pointEv @2118
    _ZNK6Slic3r13ExtrusionLoop11as_polylineEv @2119
    _ZNK6Slic3r13ExtrusionLoop11can_reverseEv @2120
    _ZNK6Slic3r13ExtrusionLoop11first_pointEv @2121
    _ZNK6Slic3r13ExtrusionLoop12is_perimeterEv @2122
    _ZNK6Slic3r13ExtrusionLoop14min_mm3_per_mmEv @2123
    _ZNK6Slic3r13ExtrusionLoop15is_solid_infillEv @2124
    _ZNK6Slic3r13ExtrusionLoop18has_overhang_pointERKNS_5PointE @2125
    _ZNK6Slic3r13ExtrusionLoop4growEv @2126
    _ZNK6Slic3r13ExtrusionLoop5cloneEv @2127
    _ZNK6Slic3r13ExtrusionLoop6lengthEv @2128
    _ZNK6Slic3r13ExtrusionLoop7is_loopEv @2129
    _ZNK6Slic3r13ExtrusionLoop7polygonEv @2130
    _ZNK6Slic3r13ExtrusionLoop8clip_endEdPSt6vectorINS_13ExtrusionPathESaIS2_EE @2131
    _ZNK6Slic3r13ExtrusionLoop9is_infillEv @2132
    _ZNK6Slic3r13ExtrusionPath10last_pointEv @2133
    _ZNK6Slic3r13ExtrusionPath11as_polylineEv @2134
    _ZNK6Slic3r13ExtrusionPath11first_pointEv @2135
    _ZNK6Slic3r13ExtrusionPath12is_perimeterEv @2136
    _ZNK6Slic3r13ExtrusionPath14min_mm3_per_mmEv @2137
    _ZNK6Slic3r13ExtrusionPath15is_solid_infillEv @2138
    _ZNK6Slic3r13ExtrusionPath19_inflate_collectionERKSt6vectorINS_8PolylineESaIS2_EEPNS_25ExtrusionEntityCollectionE @2139
    _ZNK6Slic3r13ExtrusionPath19subtract_expolygonsERKNS_19ExPolygonCollectionEPNS_25ExtrusionEntityCollectionE @2140
    _ZNK6Slic3r13ExtrusionPath20intersect_expolygonsERKNS_19ExPolygonCollectionEPNS_25ExtrusionEntityCollectionE @2141
    _ZNK6Slic3r13ExtrusionPath4growEv @2142
    _ZNK6Slic3r13ExtrusionPath5cloneEv @2143
    _ZNK6Slic3r13ExtrusionPath6lengthEv @2144
    _ZNK6Slic3r13ExtrusionPath9is_infillEv @2145
    _ZNK6Slic3r13FillHoneycomb12_layer_angleEy @2146
    _ZNK6Slic3r13FillHoneycomb5cloneEv @2147
    _ZNK6Slic3r13FillPlanePath12_layer_angleEy @2148
    _ZNK6Slic3r13FillTriangles12_layer_angleEy @2149
    _ZNK6Slic3r13FillTriangles5cloneEv @2150
    _ZNK6Slic3r13FillTriangles9can_solidEv @2151
    _ZNK6Slic3r13ModelInstance14transform_meshEPNS_12TriangleMeshEb @2152
    _ZNK6Slic3r13ModelInstance16get_trafo_matrixEb @2153
    _ZNK6Slic3r13ModelInstance17transform_polygonEPNS_7PolygonE @2154
    _ZNK6Slic3r13ModelInstance22transform_bounding_boxERKNS_13BoundingBoxf3Eb @2155
    _ZNK6Slic3r13ThickPolyline10thicklinesEv @2156
    _ZNK6Slic3r14BridgeDetector17unsupported_edgesEd @2157
    _ZNK6Slic3r14BridgeDetector8coverageEd @2158
    _ZNK6Slic3r14BridgeDetector8coverageEv @2159
    _ZNK6Slic3r14FillConcentric5cloneEv @2160
    _ZNK6Slic3r14FillConcentric7no_sortEv @2161
    _ZNK6Slic3r14FillConcentric9can_solidEv @2162
    _ZNK6Slic3r15BoundingBoxBaseINS_5PointEE4sizeEv @2163
    _ZNK6Slic3r15BoundingBoxBaseINS_5PointEE6centerEv @2164
    _ZNK6Slic3r15BoundingBoxBaseINS_5PointEE6radiusEv @2165
    _ZNK6Slic3r15BoundingBoxBaseINS_5PointEE8containsERKS1_ @2166
    _ZNK6Slic3r15BoundingBoxBaseINS_6PointfEE4sizeEv @2167
    _ZNK6Slic3r15BoundingBoxBaseINS_6PointfEE6centerEv @2168
    _ZNK6Slic3r15BoundingBoxBaseINS_6PointfEE6radiusEv @2169
    _ZNK6Slic3r15BoundingBoxBaseINS_6PointfEE8containsERKS1_ @2170
    _ZNK6Slic3r15ConfigOptionDef8cli_argsB5cxx11Ev @2171
    _ZNK6Slic3r15ConfigOptionInt5cloneEv @2172
    _ZNK6Slic3r15ConfigOptionInt6getIntEv @2173
    _ZNK6Slic3r15ConfigOptionInt9serializeB5cxx11Ev @2174
    _ZNK6Slic3r15ExtrusionEntity11can_reverseEv @2175
    _ZNK6Slic3r15ExtrusionEntity12is_perimeterEv @2176
    _ZNK6Slic3r15ExtrusionEntity13is_collectionEv @2177
    _ZNK6Slic3r15ExtrusionEntity15is_solid_infillEv @2178
    _ZNK6Slic3r15ExtrusionEntity6lengthEv @2179
    _ZNK6Slic3r15ExtrusionEntity7is_loopEv @2180
    _ZNK6Slic3r15ExtrusionEntity9is_infillEv @2181
    _ZNK6Slic3r15Fill3DHoneycomb15use_bridge_flowEv @2182
    _ZNK6Slic3r15Fill3DHoneycomb5cloneEv @2183
    _ZNK6Slic3r15FillRectilinear5cloneEv @2184
    _ZNK6Slic3r15FillRectilinear9can_solidEv @2185
    _ZNK6Slic3r15PrintConfigBase14_handle_legacyERNSt7__cxx1112basic_stringIcSt11char_traitsIcESaIcEEES7_ @2186
    _ZNK6Slic3r15PrintConfigBase19min_object_distanceEv @2187
    _ZNK6Slic3r16BoundingBox3BaseINS_7Pointf3EE4sizeEv @2188
    _ZNK6Slic3r16BoundingBox3BaseINS_7Pointf3EE6centerEv @2189
    _ZNK6Slic3r16BoundingBox3BaseINS_7Pointf3EE6radiusEv @2190
    _ZNK6Slic3r16ConfigOptionBool5cloneEv @2191
    _ZNK6Slic3r16ConfigOptionBool7getBoolEv @2192
    _ZNK6Slic3r16ConfigOptionBool9serializeB5cxx11Ev @2193
    _ZNK6Slic3r16ConfigOptionEnumINS_11GCodeFlavorEE5cloneEv @2194
    _ZNK6Slic3r16ConfigOptionEnumINS_11GCodeFlavorEE9serializeB5cxx11Ev @2195
    _ZNK6Slic3r16ConfigOptionEnumINS_12SeamPositionEE5cloneEv @2196
    _ZNK6Slic3r16ConfigOptionEnumINS_12SeamPositionEE9serializeB5cxx11Ev @2197
    _ZNK6Slic3r16ConfigOptionEnumINS_13InfillPatternEE5cloneEv @2198
    _ZNK6Slic3r16ConfigOptionEnumINS_13InfillPatternEE9serializeB5cxx11Ev @2199
    _ZNK6Slic3r16ConfigOptionEnumINS_22SupportMaterialPatternEE5cloneEv @2200
    _ZNK6Slic3r16ConfigOptionEnumINS_22SupportMaterialPatternEE9serializeB5cxx11Ev @2201
    _ZNK6Slic3r16ConfigOptionEnumINS_8HostTypeEE5cloneEv @2202
    _ZNK6Slic3r16ConfigOptionEnumINS_8HostTypeEE9serializeB5cxx11Ev @2203
    _ZNK6Slic3r16ConfigOptionInts10vserializeB5cxx11Ev @2204
    _ZNK6Slic3r16ConfigOptionInts5cloneEv @2205
    _ZNK6Slic3r16ConfigOptionInts9serializeB5cxx11Ev @2206
    _ZNK6Slic3r16FillHilbertCurve5cloneEv @2207
    _ZNK6Slic3r16FillHilbertCurve9_centeredEv @2208
    _ZNK6Slic3r16FillHilbertCurve9can_solidEv @2209
    _ZNK6Slic3r17ConfigOptionBools10vserializeB5cxx11Ev @2210
    _ZNK6Slic3r17ConfigOptionBools5cloneEv @2211
    _ZNK6Slic3r17ConfigOptionBools9serializeB5cxx11Ev @2212
    _ZNK6Slic3r17ConfigOptionFloat5cloneEv @2213
    _ZNK6Slic3r17ConfigOptionFloat8getFloatEv @2214
    _ZNK6Slic3r17ConfigOptionFloat9serializeB5cxx11Ev @2215
    _ZNK6Slic3r17ConfigOptionPoint5cloneEv @2216
    _ZNK6Slic3r17ConfigOptionPoint9serializeB5cxx11Ev @2217
    _ZNK6Slic3r17LayerHeightSpline21getInterpolatedLayersEv @2218
    _ZNK6Slic3r17PlaceholderParser16find_and_replaceERNSt7__cxx1112basic_stringIcSt11char_traitsIcESaIcEEERKS6_S9_ @2219
    _ZNK6Slic3r17PlaceholderParser7processENSt7__cxx1112basic_stringIcSt11char_traitsIcESaIcEEE @2220
    _ZNK6Slic3r17SurfaceCollection14filter_by_typeESt16initializer_listINS_11SurfaceTypeEE @2221
    _ZNK6Slic3r17SurfaceCollection14polygons_countEv @2222
    _ZNK6Slic3r17SurfaceCollection19any_bottom_containsINS_8PolylineEEEbRKT_ @2223
    _ZNK6Slic3r17SurfaceCollection21any_internal_containsINS_8PolylineEEEbRKT_ @2224
    _ZNK6Slic3r17SurfaceCollection5groupEPSt6vectorIS1_IPKNS_7SurfaceESaIS4_EESaIS6_EE @2225
    _ZNK6Slic3r17SurfaceCollectioncvSt6vectorINS_7PolygonESaIS2_EEEv @2226
    _ZNK6Slic3r17SurfaceCollectioncvSt6vectorINS_9ExPolygonESaIS2_EEEv @2227
    _ZNK6Slic3r18ConfigOptionFloats10vserializeB5cxx11Ev @2228
    _ZNK6Slic3r18ConfigOptionFloats5cloneEv @2229
    _ZNK6Slic3r18ConfigOptionFloats9serializeB5cxx11Ev @2230
    _ZNK6Slic3r18ConfigOptionPoint35cloneEv @2231
    _ZNK6Slic3r18ConfigOptionPoint39serializeB5cxx11Ev @2232
    _ZNK6Slic3r18ConfigOptionPoints10vserializeB5cxx11Ev @2233
    _ZNK6Slic3r18ConfigOptionPoints5cloneEv @2234
    _ZNK6Slic3r18ConfigOptionPoints9serializeB5cxx11Ev @2235
    _ZNK6Slic3r18ConfigOptionString5cloneEv @2236
    _ZNK6Slic3r18ConfigOptionString9getStringB5cxx11Ev @2237
    _ZNK6Slic3r18ConfigOptionString9serializeB5cxx11Ev @2238
    _ZNK6Slic3r18ConfigOptionVectorIdE6get_atEy @2239
    _ZNK6Slic3r18FillOctagramSpiral5cloneEv @2240
    _ZNK6Slic3r18FillOctagramSpiral9_centeredEv @2241
    _ZNK6Slic3r18FillOctagramSpiral9can_solidEv @2242
    _ZNK6Slic3r18PerimeterGenerator15_traverse_loopsERKSt6vectorINS_22PerimeterGeneratorLoopESaIS2_EERS1_INS_13ThickPolylineESaIS7_EE @2243
    _ZNK6Slic3r18PerimeterGenerator15_variable_widthERKSt6vectorINS_13ThickPolylineESaIS2_EENS_13ExtrusionRoleENS_4FlowE @2244
    _ZNK6Slic3r18TriangleMeshSlicerILNS_4AxisE0EE10make_loopsERSt6vectorINS_16IntersectionLineESaIS4_EEPS3_INS_7PolygonESaIS8_EE @2245
    _ZNK6Slic3r18TriangleMeshSlicerILNS_4AxisE0EE11slice_facetEfRK9stl_facetRKiRKfS9_PSt6vectorINS_16IntersectionLineESaISB_EEPN5boost5mutexE @2246
    _ZNK6Slic3r18TriangleMeshSlicerILNS_4AxisE0EE14_make_loops_doEyPSt6vectorIS3_INS_16IntersectionLineESaIS4_EESaIS6_EEPS3_IS3_INS_7PolygonESaISA_EESaISC_EE @2247
    _ZNK6Slic3r18TriangleMeshSlicerILNS_4AxisE0EE15make_expolygonsERKSt6vectorINS_7PolygonESaIS4_EEPS3_INS_9ExPolygonESaIS9_EE @2248
    _ZNK6Slic3r18TriangleMeshSlicerILNS_4AxisE0EE15make_expolygonsERSt6vectorINS_16IntersectionLineESaIS4_EEPS3_INS_9ExPolygonESaIS8_EE @2249
    _ZNK6Slic3r18TriangleMeshSlicerILNS_4AxisE0EE22make_expolygons_simpleERSt6vectorINS_16IntersectionLineESaIS4_EEPS3_INS_9ExPolygonESaIS8_EE @2250
    _ZNK6Slic3r18TriangleMeshSlicerILNS_4AxisE0EE3cutEfPNS_12TriangleMeshES4_ @2251
    _ZNK6Slic3r18TriangleMeshSlicerILNS_4AxisE0EE5sliceERKSt6vectorIfSaIfEEPS3_IS3_INS_7PolygonESaIS8_EESaISA_EE @2252
    _ZNK6Slic3r18TriangleMeshSlicerILNS_4AxisE0EE5sliceERKSt6vectorIfSaIfEEPS3_IS3_INS_9ExPolygonESaIS8_EESaISA_EE @2253
    _ZNK6Slic3r18TriangleMeshSlicerILNS_4AxisE0EE5sliceEfPSt6vectorINS_9ExPolygonESaIS4_EE @2254
    _ZNK6Slic3r18TriangleMeshSlicerILNS_4AxisE0EE9_slice_doEyPSt6vectorIS3_INS_16IntersectionLineESaIS4_EESaIS6_EEPN5boost5mutexERKS3_IfSaIfEE @2255
    _ZNK6Slic3r18TriangleMeshSlicerILNS_4AxisE1EE10make_loopsERSt6vectorINS_16IntersectionLineESaIS4_EEPS3_INS_7PolygonESaIS8_EE @2256
    _ZNK6Slic3r18TriangleMeshSlicerILNS_4AxisE1EE11slice_facetEfRK9stl_facetRKiRKfS9_PSt6vectorINS_16IntersectionLineESaISB_EEPN5boost5mutexE @2257
    _ZNK6Slic3r18TriangleMeshSlicerILNS_4AxisE1EE14_make_loops_doEyPSt6vectorIS3_INS_16IntersectionLineESaIS4_EESaIS6_EEPS3_IS3_INS_7PolygonESaISA_EESaISC_EE @2258
    _ZNK6Slic3r18TriangleMeshSlicerILNS_4AxisE1EE15make_expolygonsERKSt6vectorINS_7PolygonESaIS4_EEPS3_INS_9ExPolygonESaIS9_EE @2259
    _ZNK6Slic3r18TriangleMeshSlicerILNS_4AxisE1EE15make_expolygonsERSt6vectorINS_16IntersectionLineESaIS4_EEPS3_INS_9ExPolygonESaIS8_EE @2260
    _ZNK6Slic3r18TriangleMeshSlicerILNS_4AxisE1EE22make_expolygons_simpleERSt6vectorINS_16IntersectionLineESaIS4_EEPS3_INS_9ExPolygonESaIS8_EE @2261
    _ZNK6Slic3r18TriangleMeshSlicerILNS_4AxisE1EE3cutEfPNS_12TriangleMeshES4_ @2262
    _ZNK6Slic3r18TriangleMeshSlicerILNS_4AxisE1EE5sliceERKSt6vectorIfSaIfEEPS3_IS3_INS_7PolygonESaIS8_EESaISA_EE @2263
    _ZNK6Slic3r18TriangleMeshSlicerILNS_4AxisE1EE5sliceERKSt6vectorIfSaIfEEPS3_IS3_INS_9ExPolygonESaIS8_EESaISA_EE @2264
    _ZNK6Slic3r18TriangleMeshSlicerILNS_4AxisE1EE5sliceEfPSt6vectorINS_9ExPolygonESaIS4_EE @2265
    _ZNK6Slic3r18TriangleMeshSlicerILNS_4AxisE1EE9_slice_doEyPSt6vectorIS3_INS_16IntersectionLineESaIS4_EESaIS6_EEPN5boost5mutexERKS3_IfSaIfEE @2266
    _ZNK6Slic3r18TriangleMeshSlicerILNS_4AxisE2EE10make_loopsERSt6vectorINS_16IntersectionLineESaIS4_EEPS3_INS_7PolygonESaIS8_EE @2267
    _ZNK6Slic3r18TriangleMeshSlicerILNS_4AxisE2EE11slice_facetEfRK9stl_facetRKiRKfS9_PSt6vectorINS_16IntersectionLineESaISB_EEPN5boost5mutexE @2268
    _ZNK6Slic3r18TriangleMeshSlicerILNS_4AxisE2EE14_make_loops_doEyPSt6vectorIS3_INS_16IntersectionLineESaIS4_EESaIS6_EEPS3_IS3_INS_7PolygonESaISA_EESaISC_EE @2269
    _ZNK6Slic3r18TriangleMeshSlicerILNS_4AxisE2EE15make_expolygonsERKSt6vectorINS_7PolygonESaIS4_EEPS3_INS_9ExPolygonESaIS9_EE @2270
    _ZNK6Slic3r18TriangleMeshSlicerILNS_4AxisE2EE15make_expolygonsERSt6vectorINS_16IntersectionLineESaIS4_EEPS3_INS_9ExPolygonESaIS8_EE @2271
    _ZNK6Slic3r18TriangleMeshSlicerILNS_4AxisE2EE22make_expolygons_simpleERSt6vectorINS_16IntersectionLineESaIS4_EEPS3_INS_9ExPolygonESaIS8_EE @2272
    _ZNK6Slic3r18TriangleMeshSlicerILNS_4AxisE2EE3cutEfPNS_12TriangleMeshES4_ @2273
    _ZNK6Slic3r18TriangleMeshSlicerILNS_4AxisE2EE5sliceERKSt6vectorIfSaIfEEPS3_IS3_INS_7PolygonESaIS8_EESaISA_EE @2274
    _ZNK6Slic3r18TriangleMeshSlicerILNS_4AxisE2EE5sliceERKSt6vectorIfSaIfEEPS3_IS3_INS_9ExPolygonESaIS8_EESaISA_EE @2275
    _ZNK6Slic3r18TriangleMeshSlicerILNS_4AxisE2EE5sliceEfPSt6vectorINS_9ExPolygonESaIS4_EE @2276
    _ZNK6Slic3r18TriangleMeshSlicerILNS_4AxisE2EE9_slice_doEyPSt6vectorIS3_INS_16IntersectionLineESaIS4_EESaIS6_EEPN5boost5mutexERKS3_IfSaIfEE @2277
    _ZNK6Slic3r19ConfigOptionPercent5cloneEv @2278
    _ZNK6Slic3r19ConfigOptionPercent9serializeB5cxx11Ev @2279
    _ZNK6Slic3r19ConfigOptionStrings10getStringsB5cxx11Ev @2280
    _ZNK6Slic3r19ConfigOptionStrings10vserializeB5cxx11Ev @2281
    _ZNK6Slic3r19ConfigOptionStrings5cloneEv @2282
    _ZNK6Slic3r19ConfigOptionStrings9serializeB5cxx11Ev @2283
    _ZNK6Slic3r19ExPolygonCollection10contains_bERKNS_5PointE @2284
    _ZNK6Slic3r19ExPolygonCollection11convex_hullEv @2285
    _ZNK6Slic3r19ExPolygonCollection5holesEv @2286
    _ZNK6Slic3r19ExPolygonCollection5linesEv @2287
    _ZNK6Slic3r19ExPolygonCollection8containsERKNS_5PointE @2288
    _ZNK6Slic3r19ExPolygonCollection8containsINS_4LineEEEbRKT_ @2289
    _ZNK6Slic3r19ExPolygonCollection8containsINS_5PointEEEbRKT_ @2290
    _ZNK6Slic3r19ExPolygonCollection8containsINS_8PolylineEEEbRKT_ @2291
    _ZNK6Slic3r19ExPolygonCollection8contoursEv @2292
    _ZNK6Slic3r19ExPolygonCollectioncvSt6vectorINS_5PointESaIS2_EEEv @2293
    _ZNK6Slic3r19ExPolygonCollectioncvSt6vectorINS_7PolygonESaIS2_EEEv @2294
    _ZNK6Slic3r20TransformationMatrix10matrix3x4fEv @2295
    _ZNK6Slic3r20TransformationMatrix12determinanteEv @2296
    _ZNK6Slic3r20TransformationMatrix12multiplyLeftERKS0_ @2297
    _ZNK6Slic3r20TransformationMatrix13multiplyRightERKS0_ @2298
    _ZNK6Slic3r20TransformationMatrix7inverseEv @2299
    _ZNK6Slic3r20TransformationMatrix9transformERKNS_7Pointf3Ed @2300
    _ZNK6Slic3r20TransformationMatrixeqERKS0_ @2301
    _ZNK6Slic3r21ConfigOptionException4whatEv @2302
    _ZNK6Slic3r21FillArchimedeanChords5cloneEv @2303
    _ZNK6Slic3r21FillArchimedeanChords9_centeredEv @2304
    _ZNK6Slic3r21FillArchimedeanChords9can_solidEv @2305
    _ZNK6Slic3r22FillAlignedRectilinear12_layer_angleEy @2306
    _ZNK6Slic3r22FillAlignedRectilinear5cloneEv @2307
    _ZNK6Slic3r22FillAlignedRectilinear9can_solidEv @2308
    _ZNK6Slic3r22InvalidOptionException4whatEv @2309
    _ZNK6Slic3r22PerimeterGeneratorLoop19is_internal_contourEv @2310
    _ZNK6Slic3r23ConfigOptionEnumGeneric9serializeB5cxx11Ev @2311
    _ZNK6Slic3r25ExtrusionEntityCollection10last_pointEv @2312
    _ZNK6Slic3r25ExtrusionEntityCollection11as_polylineEv @2313
    _ZNK6Slic3r25ExtrusionEntityCollection11can_reverseEv @2314
    _ZNK6Slic3r25ExtrusionEntityCollection11first_pointEv @2315
    _ZNK6Slic3r25ExtrusionEntityCollection11items_countEv @2316
    _ZNK6Slic3r25ExtrusionEntityCollection12chained_pathEPS0_bPSt6vectorIySaIyEE @2317
    _ZNK6Slic3r25ExtrusionEntityCollection12chained_pathEbPSt6vectorIySaIyEE @2318
    _ZNK6Slic3r25ExtrusionEntityCollection13is_collectionEv @2319
    _ZNK6Slic3r25ExtrusionEntityCollection14min_mm3_per_mmEv @2320
    _ZNK6Slic3r25ExtrusionEntityCollection17chained_path_fromENS_5PointEPS0_bPSt6vectorIySaIyEE @2321
    _ZNK6Slic3r25ExtrusionEntityCollection4growEv @2322
    _ZNK6Slic3r25ExtrusionEntityCollection5cloneEv @2323
    _ZNK6Slic3r25ExtrusionEntityCollection7flattenEPS0_b @2324
    _ZNK6Slic3r25ExtrusionEntityCollection7flattenEb @2325
    _ZNK6Slic3r25ExtrusionEntityCollectioncvSt6vectorINS_13ExtrusionPathESaIS2_EEEv @2326
    _ZNK6Slic3r26ConfigOptionFloatOrPercent5cloneEv @2327
    _ZNK6Slic3r26ConfigOptionFloatOrPercent8getFloatEv @2328
    _ZNK6Slic3r26ConfigOptionFloatOrPercent9serializeB5cxx11Ev @2329
    _ZNK6Slic3r4Fill12_layer_angleEy @2330
    _ZNK6Slic3r4Fill15use_bridge_flowEv @2331
    _ZNK6Slic3r4Fill17_infill_directionERKNS_7SurfaceE @2332
    _ZNK6Slic3r4Fill7no_sortEv @2333
    _ZNK6Slic3r4Fill9can_solidEv @2334
    _ZNK6Slic3r4Flow10mm3_per_mmEv @2335
    _ZNK6Slic3r4Flow7spacingERKS0_ @2336
    _ZNK6Slic3r4Flow7spacingEv @2337
    _ZNK6Slic3r4Line11distance_toERKNS_5PointE @2338
    _ZNK6Slic3r4Line11orientationEv @2339
    _ZNK6Slic3r4Line11parallel_toERKS0_ @2340
    _ZNK6Slic3r4Line11parallel_toEd @2341
    _ZNK6Slic3r4Line12intersectionERKS0_PNS_5PointE @2342
    _ZNK6Slic3r4Line14coincides_withERKS0_ @2343
    _ZNK6Slic3r4Line21intersection_infiniteERKS0_PNS_5PointE @2344
    _ZNK6Slic3r4Line3ccwERKNS_5PointE @2345
    _ZNK6Slic3r4Line3wktB5cxx11Ev @2346
    _ZNK6Slic3r4Line6atan2_Ev @2347
    _ZNK6Slic3r4Line6lengthEv @2348
    _ZNK6Slic3r4Line6normalEv @2349
    _ZNK6Slic3r4Line6vectorEv @2350
    _ZNK6Slic3r4Line8midpointEv @2351
    _ZNK6Slic3r4Line8point_atEd @2352
    _ZNK6Slic3r4Line8point_atEdPNS_5PointE @2353
    _ZNK6Slic3r4Line9directionEv @2354
    _ZNK6Slic3r4LinecvNS_8PolylineEEv @2355
    _ZNK6Slic3r4LinecvSt6vectorIS0_SaIS0_EEEv @2356
    _ZNK6Slic3r5Layer10is_supportEv @2357
    _ZNK6Slic3r5Layer12region_countEv @2358
    _ZNK6Slic3r5Layer2idEv @2359
    _ZNK6Slic3r5Layer32any_bottom_region_slice_containsINS_8PolylineEEEbRKT_ @2360
    _ZNK6Slic3r5Layer34any_internal_region_slice_containsINS_8PolylineEEEbRKT_ @2361
    _ZNK6Slic3r5Model10print_infoEv @2362
    _ZNK6Slic3r5Model12bounding_boxEv @2363
    _ZNK6Slic3r5Model27looks_like_multipart_objectEv @2364
    _ZNK6Slic3r5Model29has_objects_with_no_instancesEv @2365
    _ZNK6Slic3r5Model4meshEv @2366
    _ZNK6Slic3r5Model8_arrangeERKSt6vectorINS_6PointfESaIS2_EEdPKNS_12BoundingBoxfERS4_ @2367
    _ZNK6Slic3r5Model8raw_meshEv @2368
    _ZNK6Slic3r5Point11distance_toERKNS_4LineE @2369
    _ZNK6Slic3r5Point11distance_toERKS0_ @2370
    _ZNK6Slic3r5Point13nearest_pointERKSt6vectorIS0_SaIS0_EEPS0_ @2371
    _ZNK6Slic3r5Point15projection_ontoERKNS_10MultiPointE @2372
    _ZNK6Slic3r5Point15projection_ontoERKNS_4LineE @2373
    _ZNK6Slic3r5Point16nearest_waypointERKSt6vectorIS0_SaIS0_EERKS0_PS0_ @2374
    _ZNK6Slic3r5Point16perp_distance_toERKNS_4LineE @2375
    _ZNK6Slic3r5Point19nearest_point_indexERKSt6vectorIPKS0_SaIS3_EE @2376
    _ZNK6Slic3r5Point19nearest_point_indexERKSt6vectorIPS0_SaIS2_EE @2377
    _ZNK6Slic3r5Point19nearest_point_indexERKSt6vectorIS0_SaIS0_EE @2378
    _ZNK6Slic3r5Point22coincides_with_epsilonERKS0_ @2379
    _ZNK6Slic3r5Point22nearest_waypoint_indexERKSt6vectorIS0_SaIS0_EERKS0_ @2380
    _ZNK6Slic3r5Point3ccwERKNS_4LineE @2381
    _ZNK6Slic3r5Point3ccwERKS0_S2_ @2382
    _ZNK6Slic3r5Point3wktB5cxx11Ev @2383
    _ZNK6Slic3r5Point8negativeEv @2384
    _ZNK6Slic3r5Point9ccw_angleERKS0_S2_ @2385
    _ZNK6Slic3r5Point9dump_perlB5cxx11Ev @2386
    _ZNK6Slic3r5Point9vector_toERKS0_ @2387
    _ZNK6Slic3r5PointeqERKS0_ @2388
    _ZNK6Slic3r5Print10skirt_flowEv @2389
    _ZNK6Slic3r5Print12bounding_boxEv @2390
    _ZNK6Slic3r5Print13brim_extruderEv @2391
    _ZNK6Slic3r5Print16object_extrudersEv @2392
    _ZNK6Slic3r5Print18has_infinite_skirtEv @2393
    _ZNK6Slic3r5Print18total_bounding_boxEv @2394
    _ZNK6Slic3r5Print20has_support_materialEv @2395
    _ZNK6Slic3r5Print21auto_assign_extrudersEPNS_11ModelObjectE @2396
    _ZNK6Slic3r5Print24max_allowed_layer_heightEv @2397
    _ZNK6Slic3r5Print24skirt_first_layer_heightEv @2398
    _ZNK6Slic3r5Print26support_material_extrudersEv @2399
    _ZNK6Slic3r5Print8validateEv @2400
    _ZNK6Slic3r5Print9brim_flowEv @2401
    _ZNK6Slic3r5Print9extrudersEv @2402
    _ZNK6Slic3r5Print9has_skirtEv @2403
    _ZNK6Slic3r5Print9step_doneENS_15PrintObjectStepE @2404
    _ZNK6Slic3r6Linef315intersect_planeEd @2405
    _ZNK6Slic3r6Pointf22coincides_with_epsilonERKS0_ @2406
    _ZNK6Slic3r6Pointf3wktB5cxx11Ev @2407
    _ZNK6Slic3r6Pointf8negativeEv @2408
    _ZNK6Slic3r6Pointf9dump_perlB5cxx11Ev @2409
    _ZNK6Slic3r6Pointf9vector_toERKS0_ @2410
    _ZNK6Slic3r6PointfeqERKS0_ @2411
    _ZNK6Slic3r7Pointf311distance_toERKS0_ @2412
    _ZNK6Slic3r7Pointf38negativeEv @2413
    _ZNK6Slic3r7Pointf39vector_toERKS0_ @2414
    _ZNK6Slic3r7Polygon10last_pointEv @2415
    _ZNK6Slic3r7Polygon12is_clockwiseEv @2416
    _ZNK6Slic3r7Polygon13convex_pointsEd @2417
    _ZNK6Slic3r7Polygon14concave_pointsEd @2418
    _ZNK6Slic3r7Polygon14split_at_indexEi @2419
    _ZNK6Slic3r7Polygon15split_at_vertexERKNS_5PointE @2420
    _ZNK6Slic3r7Polygon18triangulate_convexEPSt6vectorIS0_SaIS0_EE @2421
    _ZNK6Slic3r7Polygon20is_counter_clockwiseEv @2422
    _ZNK6Slic3r7Polygon20split_at_first_pointEv @2423
    _ZNK6Slic3r7Polygon21equally_spaced_pointsEd @2424
    _ZNK6Slic3r7Polygon3wktB5cxx11Ev @2425
    _ZNK6Slic3r7Polygon4areaEv @2426
    _ZNK6Slic3r7Polygon5linesEv @2427
    _ZNK6Slic3r7Polygon8centroidEv @2428
    _ZNK6Slic3r7Polygon8containsERKNS_5PointE @2429
    _ZNK6Slic3r7Polygon8is_validEv @2430
    _ZNK6Slic3r7Polygon8simplifyEd @2431
    _ZNK6Slic3r7Polygon8simplifyEdRSt6vectorIS0_SaIS0_EE @2432
    _ZNK6Slic3r7PolygoncvNS_8PolylineEEv @2433
    _ZNK6Slic3r7PolygoncvSt6vectorIS0_SaIS0_EEEv @2434
    _ZNK6Slic3r7PolygonixEy @2435
    _ZNK6Slic3r7Surface11is_externalEv @2436
    _ZNK6Slic3r7Surface11is_internalEv @2437
    _ZNK6Slic3r7Surface4areaEv @2438
    _ZNK6Slic3r7Surface6is_topEv @2439
    _ZNK6Slic3r7Surface8is_solidEv @2440
    _ZNK6Slic3r7Surface9is_bottomEv @2441
    _ZNK6Slic3r7Surface9is_bridgeEv @2442
    _ZNK6Slic3r7SurfacecvSt6vectorINS_7PolygonESaIS2_EEEv @2443
    _ZNK6Slic3r8Extruder12retract_liftEv @2444
    _ZNK6Slic3r8Extruder13filament_costEv @2445
    _ZNK6Slic3r8Extruder13retract_speedEv @2446
    _ZNK6Slic3r8Extruder13used_filamentEv @2447
    _ZNK6Slic3r8Extruder14retract_lengthEv @2448
    _ZNK6Slic3r8Extruder15extruded_volumeEv @2449
    _ZNK6Slic3r8Extruder16filament_densityEv @2450
    _ZNK6Slic3r8Extruder17filament_diameterEv @2451
    _ZNK6Slic3r8Extruder20extrusion_multiplierEv @2452
    _ZNK6Slic3r8Extruder21retract_restart_extraEv @2453
    _ZNK6Slic3r8Extruder25retract_length_toolchangeEv @2454
    _ZNK6Slic3r8Extruder32retract_restart_extra_toolchangeEv @2455
    _ZNK6Slic3r8Extruder8e_per_mmEd @2456
    _ZNK6Slic3r8FillGrid12_layer_angleEy @2457
    _ZNK6Slic3r8FillGrid5cloneEv @2458
    _ZNK6Slic3r8FillGrid9can_solidEv @2459
    _ZNK6Slic3r8Geometry10MedialAxis16retrieve_segmentEPKN5boost7polygon12voronoi_cellIdEE @2460
    _ZNK6Slic3r8Geometry10MedialAxis17retrieve_endpointEPKN5boost7polygon12voronoi_cellIdEE @2461
    _ZNK6Slic3r8Polyline10last_pointEv @2462
    _ZNK6Slic3r8Polyline11is_straightEv @2463
    _ZNK6Slic3r8Polyline14leftmost_pointEv @2464
    _ZNK6Slic3r8Polyline21equally_spaced_pointsEd @2465
    _ZNK6Slic3r8Polyline3wktB5cxx11Ev @2466
    _ZNK6Slic3r8Polyline4growEddN10ClipperLib8JoinTypeEd @2467
    _ZNK6Slic3r8Polyline5linesEv @2468
    _ZNK6Slic3r8Polyline8split_atERKNS_5PointEPS0_S4_ @2469
    _ZNK6Slic3r8PolylinecvNS_4LineEEv @2470
    _ZNK6Slic3r8PolylinecvSt6vectorIS0_SaIS0_EEEv @2471
    _ZNK6Slic3r8SLAPrint11_SVG_path_dB5cxx11ERKNS_7PolygonE @2472
    _ZNK6Slic3r8SLAPrint11_SVG_path_dB5cxx11ERKNS_9ExPolygonE @2473
    _ZNK6Slic3r8SLAPrint17sm_pillars_radiusEv @2474
    _ZNK6Slic3r8SLAPrint9write_svgERKNSt7__cxx1112basic_stringIcSt11char_traitsIcESaIcEEE @2475
    _ZNK6Slic3r9ConfigDef14print_cli_helpERSob @2476
    _ZNK6Slic3r9ConfigDef3getERKNSt7__cxx1112basic_stringIcSt11char_traitsIcESaIcEEE @2477
    _ZNK6Slic3r9ConfigDef3hasERKNSt7__cxx1112basic_stringIcSt11char_traitsIcESaIcEEE @2478
    _ZNK6Slic3r9ExPolygon10contains_bERKNS_5PointE @2479
    _ZNK6Slic3r9ExPolygon10simplify_pEd @2480
    _ZNK6Slic3r9ExPolygon10simplify_pEdPSt6vectorINS_7PolygonESaIS2_EE @2481
    _ZNK6Slic3r9ExPolygon11medial_axisERKS0_ddPSt6vectorINS_13ThickPolylineESaIS4_EE @2482
    _ZNK6Slic3r9ExPolygon11medial_axisEddPSt6vectorINS_8PolylineESaIS2_EE @2483
    _ZNK6Slic3r9ExPolygon11triangulateEPSt6vectorINS_7PolygonESaIS2_EE @2484
    _ZNK6Slic3r9ExPolygon14get_trapezoidsEPSt6vectorINS_7PolygonESaIS2_EE @2485
    _ZNK6Slic3r9ExPolygon14get_trapezoidsEPSt6vectorINS_7PolygonESaIS2_EEd @2486
    _ZNK6Slic3r9ExPolygon14triangulate_ppEPSt6vectorINS_7PolygonESaIS2_EE @2487
    _ZNK6Slic3r9ExPolygon15get_trapezoids2EPSt6vectorINS_7PolygonESaIS2_EE @2488
    _ZNK6Slic3r9ExPolygon15get_trapezoids2EPSt6vectorINS_7PolygonESaIS2_EEd @2489
    _ZNK6Slic3r9ExPolygon15triangulate_p2tEPSt6vectorINS_7PolygonESaIS2_EE @2490
    _ZNK6Slic3r9ExPolygon18has_boundary_pointERKNS_5PointE @2491
    _ZNK6Slic3r9ExPolygon4areaEv @2492
    _ZNK6Slic3r9ExPolygon5linesEv @2493
    _ZNK6Slic3r9ExPolygon8containsERKNS_4LineE @2494
    _ZNK6Slic3r9ExPolygon8containsERKNS_5PointE @2495
    _ZNK6Slic3r9ExPolygon8containsERKNS_8PolylineE @2496
    _ZNK6Slic3r9ExPolygon8is_validEv @2497
    _ZNK6Slic3r9ExPolygon8simplifyEd @2498
    _ZNK6Slic3r9ExPolygon8simplifyEdPSt6vectorIS0_SaIS0_EE @2499
    _ZNK6Slic3r9ExPolygon9dump_perlB5cxx11Ev @2500
    _ZNK6Slic3r9ExPolygoncvSt6vectorINS_5PointESaIS2_EEEv @2501
    _ZNK6Slic3r9ExPolygoncvSt6vectorINS_7PolygonESaIS2_EEEv @2502
    _ZNK6Slic3r9FillCubic12_layer_angleEy @2503
    _ZNK6Slic3r9FillCubic5cloneEv @2504
    _ZNK6Slic3r9FillCubic9can_solidEv @2505
    _ZNK6Slic3r9FillStars12_layer_angleEy @2506
    _ZNK6Slic3r9FillStars5cloneEv @2507
    _ZNK6Slic3r9FillStars9can_solidEv @2508
    _ZNK8TPPLPoly14GetOrientationEv @2509
    _ZNKSt10filesystem7__cxx114path4stemEv @2510
    _ZNKSt10filesystem7__cxx114path8filenameEv @2511
    _ZNKSt23__codecvt_abstract_baseIwc9_MbstatetE2inERS0_PKcS4_RS4_PwS6_RS6_ @2512
    _ZNKSt23__codecvt_abstract_baseIwc9_MbstatetE3outERS0_PKwS4_RS4_PcS6_RS6_ @2513
    _ZNKSt3mapINSt7__cxx1112basic_stringIcSt11char_traitsIcESaIcEEEN6Slic3r15ConfigOptionDefESt4lessIS5_ESaISt4pairIKS5_S7_EEE2atERSB_ @2514
    _ZNKSt5ctypeIcE8do_widenEc @2515
    _ZNKSt5ctypeIcE9do_narrowEcc @2516
    _ZNKSt7__cxx1112regex_traitsIcE16lookup_classnameIPKcEENS1_10_RegexMaskET_S6_b @2517
    _ZNKSt7__cxx1112regex_traitsIcE17transform_primaryIPcEENS_12basic_stringIcSt11char_traitsIcESaIcEEET_S9_ @2518
    _ZNKSt7__cxx1112regex_traitsIcE18lookup_collatenameIPKcEENS_12basic_stringIcSt11char_traitsIcESaIcEEET_SA_ @2519
    _ZNKSt7__cxx1114regex_iteratorIN9__gnu_cxx17__normal_iteratorIPKcNS_12basic_stringIcSt11char_traitsIcESaIcEEEEEcNS_12regex_traitsIcEEEeqERKSD_ @2520
    _ZNKSt7__cxx1114regex_iteratorIN9__gnu_cxx17__normal_iteratorIPcNS_12basic_stringIcSt11char_traitsIcESaIcEEEEEcNS_12regex_traitsIcEEEeqERKSC_ @2521
    _ZNKSt7__cxx1120regex_token_iteratorIN9__gnu_cxx17__normal_iteratorIPKcNS_12basic_stringIcSt11char_traitsIcESaIcEEEEEcNS_12regex_traitsIcEEE16_M_current_matchEv @2522
    _ZNKSt8__detail9_ExecutorIN9__gnu_cxx17__normal_iteratorIPKcNSt7__cxx1112basic_stringIcSt11char_traitsIcESaIcEEEEESaINS5_9sub_matchISB_EEENS5_12regex_traitsIcEELb0EE21_M_is_line_terminatorEc @2523
    _ZNKSt8__detail9_ExecutorIN9__gnu_cxx17__normal_iteratorIPKcNSt7__cxx1112basic_stringIcSt11char_traitsIcESaIcEEEEESaINS5_9sub_matchISB_EEENS5_12regex_traitsIcEELb1EE21_M_is_line_terminatorEc @2524
    _ZNKSt8__detail9_ExecutorIN9__gnu_cxx17__normal_iteratorIPcNSt7__cxx1112basic_stringIcSt11char_traitsIcESaIcEEEEESaINS4_9sub_matchISA_EEENS4_12regex_traitsIcEELb0EE21_M_is_line_terminatorEc @2525
    _ZNKSt8__detail9_ExecutorIN9__gnu_cxx17__normal_iteratorIPcNSt7__cxx1112basic_stringIcSt11char_traitsIcESaIcEEEEESaINS4_9sub_matchISA_EEENS4_12regex_traitsIcEELb1EE21_M_is_line_terminatorEc @2526
    _ZNSt10filesystem7__cxx114path10_S_convertIcEEDaPKT_S5_ @2527
    _ZNSt10filesystem7__cxx114path8_CodecvtIwED0Ev @2528
    _ZNSt10filesystem7__cxx114path8_CodecvtIwED1Ev @2529
    _ZNSt10filesystem7__cxx114pathC1ERKS1_ @2530
    _ZNSt10filesystem7__cxx114pathD1Ev @2531
    _ZNSt10filesystem7__cxx118__detail24__throw_conversion_errorEv @2532
    _ZNSt10filesystem7__cxx11lsIcSt11char_traitsIcEEERSt13basic_ostreamIT_T0_ES8_RKNS0_4pathE @2533
    _ZNSt10unique_ptrIN6Slic3r4_LogESt14default_deleteIS1_EED1Ev @2534
    _ZNSt11_Deque_baseIPN6Slic3r17SurfaceCollectionESaIS2_EE17_M_initialize_mapEy @2535
    _ZNSt11_Deque_baseIPN6Slic3r17SurfaceCollectionESaIS2_EED2Ev @2536
    _ZNSt11_Deque_baseIPN6Slic3r5LayerESaIS2_EE17_M_initialize_mapEy @2537
    _ZNSt11_Deque_baseIPN6Slic3r5LayerESaIS2_EED2Ev @2538
    _ZNSt11_Deque_baseIiSaIiEED2Ev @2539
    _ZNSt11_Deque_baseIlSaIlEE17_M_initialize_mapEy @2540
    _ZNSt11_Deque_baseIlSaIlEED2Ev @2541
    _ZNSt11_Deque_baseIySaIyEE17_M_initialize_mapEy @2542
    _ZNSt11_Deque_baseIySaIyEED2Ev @2543
    _ZNSt12_Destroy_auxILb0EE9__destroyIPN6Slic3r7PolygonEEEvT_S5_ @2544
    _ZNSt12_Destroy_auxILb0EE9__destroyIPN6Slic3r8PolylineEEEvT_S5_ @2545
    _ZNSt12_Destroy_auxILb0EE9__destroyIPN7tinyobj6face_tEEEvT_S5_ @2546
    _ZNSt12_Destroy_auxILb0EE9__destroyIPSt4pairIS2_IN5boost7polygon10point_dataIxEES6_ESt6vectorIS2_IiiESaIS9_EEEEEvT_SE_ @2547
    _ZNSt13_Bvector_baseISaIbEE13_M_deallocateEv @2548
    _ZNSt16_Sp_counted_baseILN9__gnu_cxx12_Lock_policyE2EE10_M_releaseEv @2549
    _ZNSt16_Sp_counted_baseILN9__gnu_cxx12_Lock_policyE2EE24_M_release_last_use_coldEv @2550
    _ZNSt17_Function_handlerIFbcENSt8__detail11_AnyMatcherINSt7__cxx1112regex_traitsIcEELb0ELb0ELb0EEEE10_M_managerERSt9_Any_dataRKS8_St18_Manager_operation @2551
    _ZNSt17_Function_handlerIFbcENSt8__detail11_AnyMatcherINSt7__cxx1112regex_traitsIcEELb0ELb0ELb0EEEE9_M_invokeERKSt9_Any_dataOc @2552
    _ZNSt17_Function_handlerIFbcENSt8__detail11_AnyMatcherINSt7__cxx1112regex_traitsIcEELb0ELb0ELb1EEEE10_M_managerERSt9_Any_dataRKS8_St18_Manager_operation @2553
    _ZNSt17_Function_handlerIFbcENSt8__detail11_AnyMatcherINSt7__cxx1112regex_traitsIcEELb0ELb0ELb1EEEE9_M_invokeERKSt9_Any_dataOc @2554
    _ZNSt17_Function_handlerIFbcENSt8__detail11_AnyMatcherINSt7__cxx1112regex_traitsIcEELb0ELb1ELb0EEEE10_M_managerERSt9_Any_dataRKS8_St18_Manager_operation @2555
    _ZNSt17_Function_handlerIFbcENSt8__detail11_AnyMatcherINSt7__cxx1112regex_traitsIcEELb0ELb1ELb0EEEE9_M_invokeERKSt9_Any_dataOc @2556
    _ZNSt17_Function_handlerIFbcENSt8__detail11_AnyMatcherINSt7__cxx1112regex_traitsIcEELb0ELb1ELb1EEEE10_M_managerERSt9_Any_dataRKS8_St18_Manager_operation @2557
    _ZNSt17_Function_handlerIFbcENSt8__detail11_AnyMatcherINSt7__cxx1112regex_traitsIcEELb0ELb1ELb1EEEE9_M_invokeERKSt9_Any_dataOc @2558
    _ZNSt17_Function_handlerIFbcENSt8__detail11_AnyMatcherINSt7__cxx1112regex_traitsIcEELb1ELb0ELb0EEEE10_M_managerERSt9_Any_dataRKS8_St18_Manager_operation @2559
    _ZNSt17_Function_handlerIFbcENSt8__detail11_AnyMatcherINSt7__cxx1112regex_traitsIcEELb1ELb0ELb0EEEE9_M_invokeERKSt9_Any_dataOc @2560
    _ZNSt17_Function_handlerIFbcENSt8__detail11_AnyMatcherINSt7__cxx1112regex_traitsIcEELb1ELb0ELb1EEEE10_M_managerERSt9_Any_dataRKS8_St18_Manager_operation @2561
    _ZNSt17_Function_handlerIFbcENSt8__detail11_AnyMatcherINSt7__cxx1112regex_traitsIcEELb1ELb0ELb1EEEE9_M_invokeERKSt9_Any_dataOc @2562
    _ZNSt17_Function_handlerIFbcENSt8__detail11_AnyMatcherINSt7__cxx1112regex_traitsIcEELb1ELb1ELb0EEEE10_M_managerERSt9_Any_dataRKS8_St18_Manager_operation @2563
    _ZNSt17_Function_handlerIFbcENSt8__detail11_AnyMatcherINSt7__cxx1112regex_traitsIcEELb1ELb1ELb0EEEE9_M_invokeERKSt9_Any_dataOc @2564
    _ZNSt17_Function_handlerIFbcENSt8__detail11_AnyMatcherINSt7__cxx1112regex_traitsIcEELb1ELb1ELb1EEEE10_M_managerERSt9_Any_dataRKS8_St18_Manager_operation @2565
    _ZNSt17_Function_handlerIFbcENSt8__detail11_AnyMatcherINSt7__cxx1112regex_traitsIcEELb1ELb1ELb1EEEE9_M_invokeERKSt9_Any_dataOc @2566
    _ZNSt17_Function_handlerIFbcENSt8__detail12_CharMatcherINSt7__cxx1112regex_traitsIcEELb0ELb0EEEE10_M_managerERSt9_Any_dataRKS8_St18_Manager_operation @2567
    _ZNSt17_Function_handlerIFbcENSt8__detail12_CharMatcherINSt7__cxx1112regex_traitsIcEELb0ELb0EEEE9_M_invokeERKSt9_Any_dataOc @2568
    _ZNSt17_Function_handlerIFbcENSt8__detail12_CharMatcherINSt7__cxx1112regex_traitsIcEELb0ELb1EEEE10_M_managerERSt9_Any_dataRKS8_St18_Manager_operation @2569
    _ZNSt17_Function_handlerIFbcENSt8__detail12_CharMatcherINSt7__cxx1112regex_traitsIcEELb0ELb1EEEE9_M_invokeERKSt9_Any_dataOc @2570
    _ZNSt17_Function_handlerIFbcENSt8__detail12_CharMatcherINSt7__cxx1112regex_traitsIcEELb1ELb0EEEE10_M_managerERSt9_Any_dataRKS8_St18_Manager_operation @2571
    _ZNSt17_Function_handlerIFbcENSt8__detail12_CharMatcherINSt7__cxx1112regex_traitsIcEELb1ELb0EEEE9_M_invokeERKSt9_Any_dataOc @2572
    _ZNSt17_Function_handlerIFbcENSt8__detail12_CharMatcherINSt7__cxx1112regex_traitsIcEELb1ELb1EEEE10_M_managerERSt9_Any_dataRKS8_St18_Manager_operation @2573
    _ZNSt17_Function_handlerIFbcENSt8__detail12_CharMatcherINSt7__cxx1112regex_traitsIcEELb1ELb1EEEE9_M_invokeERKSt9_Any_dataOc @2574
    _ZNSt17_Function_handlerIFbcENSt8__detail15_BracketMatcherINSt7__cxx1112regex_traitsIcEELb0ELb0EEEE10_M_managerERSt9_Any_dataRKS8_St18_Manager_operation @2575
    _ZNSt17_Function_handlerIFbcENSt8__detail15_BracketMatcherINSt7__cxx1112regex_traitsIcEELb0ELb0EEEE9_M_invokeERKSt9_Any_dataOc @2576
    _ZNSt17_Function_handlerIFbcENSt8__detail15_BracketMatcherINSt7__cxx1112regex_traitsIcEELb0ELb1EEEE10_M_managerERSt9_Any_dataRKS8_St18_Manager_operation @2577
    _ZNSt17_Function_handlerIFbcENSt8__detail15_BracketMatcherINSt7__cxx1112regex_traitsIcEELb0ELb1EEEE9_M_invokeERKSt9_Any_dataOc @2578
    _ZNSt17_Function_handlerIFbcENSt8__detail15_BracketMatcherINSt7__cxx1112regex_traitsIcEELb1ELb0EEEE10_M_managerERSt9_Any_dataRKS8_St18_Manager_operation @2579
    _ZNSt17_Function_handlerIFbcENSt8__detail15_BracketMatcherINSt7__cxx1112regex_traitsIcEELb1ELb0EEEE9_M_invokeERKSt9_Any_dataOc @2580
    _ZNSt17_Function_handlerIFbcENSt8__detail15_BracketMatcherINSt7__cxx1112regex_traitsIcEELb1ELb1EEEE10_M_managerERSt9_Any_dataRKS8_St18_Manager_operation @2581
    _ZNSt17_Function_handlerIFbcENSt8__detail15_BracketMatcherINSt7__cxx1112regex_traitsIcEELb1ELb1EEEE9_M_invokeERKSt9_Any_dataOc @2582
    _ZNSt18codecvt_utf8_utf16IwLm1114111ELSt12codecvt_mode0EED0Ev @2583
    _ZNSt18codecvt_utf8_utf16IwLm1114111ELSt12codecvt_mode0EED1Ev @2584
    _ZNSt23_Sp_counted_ptr_inplaceINSt8__detail4_NFAINSt7__cxx1112regex_traitsIcEEEESaIvELN9__gnu_cxx12_Lock_policyE2EE10_M_destroyEv @2585
    _ZNSt23_Sp_counted_ptr_inplaceINSt8__detail4_NFAINSt7__cxx1112regex_traitsIcEEEESaIvELN9__gnu_cxx12_Lock_policyE2EE10_M_disposeEv @2586
    _ZNSt23_Sp_counted_ptr_inplaceINSt8__detail4_NFAINSt7__cxx1112regex_traitsIcEEEESaIvELN9__gnu_cxx12_Lock_policyE2EE14_M_get_deleterERKSt9type_info @2587
    _ZNSt23_Sp_counted_ptr_inplaceINSt8__detail4_NFAINSt7__cxx1112regex_traitsIcEEEESaIvELN9__gnu_cxx12_Lock_policyE2EED0Ev @2588
    _ZNSt23_Sp_counted_ptr_inplaceINSt8__detail4_NFAINSt7__cxx1112regex_traitsIcEEEESaIvELN9__gnu_cxx12_Lock_policyE2EED1Ev @2589
    _ZNSt3mapINSt7__cxx1112basic_stringIcSt11char_traitsIcESaIcEEEN6Slic3r2IO16AMFParserContext6ObjectESt4lessIS5_ESaISt4pairIKS5_S9_EEEixEOS5_ @2590
    _ZNSt3mapINSt7__cxx1112basic_stringIcSt11char_traitsIcESaIcEEEPN6Slic3r4FillESt4lessIS5_ESaISt4pairIKS5_S8_EEEixEOS5_ @2591
    _ZNSt3mapINSt7__cxx1112basic_stringIcSt11char_traitsIcESaIcEEEiSt4lessIS5_ESaISt4pairIKS5_iEEEixEOS5_ @2592
    _ZNSt3mapINSt7__cxx1112basic_stringIcSt11char_traitsIcESaIcEEEiSt4lessIS5_ESaISt4pairIKS5_iEEEixERS9_ @2593
    _ZNSt3mapISt4pairIiiEiSt4lessIS1_ESaIS0_IKS1_iEEEixERS4_ @2594
    _ZNSt3mapIdSt6vectorIN6Slic3r7PolygonESaIS2_EESt4lessIdESaISt4pairIKdS4_EEEixERS8_ @2595
    _ZNSt3mapIiSt6vectorIN6Slic3r7PolygonESaIS2_EESt4lessIiESaISt4pairIKiS4_EEEixERS8_ @2596
    _ZNSt3mapIxSt6vectorISt4pairIS1_IN5boost7polygon10point_dataIxEES5_EiESaIS7_EESt4lessIxESaIS1_IKxS9_EEEixERSC_ @2597
    _ZNSt5dequeINSt7__cxx1112basic_stringIcSt11char_traitsIcESaIcEEESaIS5_EED1Ev @2598
    _ZNSt5dequeINSt8__detail9_StateSeqINSt7__cxx1112regex_traitsIcEEEESaIS5_EE16_M_push_back_auxIJRKS5_EEEvDpOT_ @2599
    _ZNSt5dequeINSt8__detail9_StateSeqINSt7__cxx1112regex_traitsIcEEEESaIS5_EE17_M_reallocate_mapEyb @2600
    _ZNSt5dequeINSt8__detail9_StateSeqINSt7__cxx1112regex_traitsIcEEEESaIS5_EE9push_backERKS5_ @2601
    _ZNSt5dequeIiSaIiEE16_M_push_back_auxIJRKiEEEvDpOT_ @2602
    _ZNSt5dequeIlSaIlEE16_M_push_back_auxIJRKlEEEvDpOT_ @2603
    _ZNSt6thread11_State_implINS_8_InvokerISt5tupleIJMN4Marc6LoggerEFvvEPS4_EEEEE6_M_runEv @2604
    _ZNSt6thread11_State_implINS_8_InvokerISt5tupleIJMN4Marc6LoggerEFvvEPS4_EEEEED0Ev @2605
    _ZNSt6thread11_State_implINS_8_InvokerISt5tupleIJMN4Marc6LoggerEFvvEPS4_EEEEED1Ev @2606
    _ZNSt6thread24_M_thread_deps_never_runEv @2607
    _ZNSt6vectorIN10ClipperLib11DoublePointESaIS1_EE17_M_realloc_appendIJS1_EEEvDpOT_ @2608
    _ZNSt6vectorIN10ClipperLib12LocalMinimumESaIS1_EE17_M_realloc_appendIJRKS1_EEEvDpOT_ @2609
    _ZNSt6vectorIN10ClipperLib8IntPointESaIS1_EE17_M_default_appendEy @2610
    _ZNSt6vectorIN10ClipperLib8IntPointESaIS1_EE17_M_realloc_appendIJRKS1_EEEvDpOT_ @2611
    _ZNSt6vectorIN10ClipperLib8IntPointESaIS1_EE17_M_realloc_appendIJS1_EEEvDpOT_ @2612
    _ZNSt6vectorIN10ClipperLib8IntPointESaIS1_EE7reserveEy @2613
    _ZNSt6vectorIN4Marc4LineESaIS1_EE17_M_default_appendEy @2614
    _ZNSt6vectorIN4Marc5HatchESaIS1_EE17_M_default_appendEy @2615
    _ZNSt6vectorIN4Marc5LayerESaIS1_EE17_M_default_appendEy @2616
    _ZNSt6vectorIN4Marc5PointESaIS1_EE17_M_default_appendEy @2617
    _ZNSt6vectorIN4Marc5PointESaIS1_EE17_M_realloc_appendIJRKS1_EEEvDpOT_ @2618
    _ZNSt6vectorIN4Marc7PolygonESaIS1_EE17_M_default_appendEy @2619
    _ZNSt6vectorIN4Marc7PolygonESaIS1_EE17_M_realloc_appendIJS1_EEEvDpOT_ @2620
    _ZNSt6vectorIN4Marc8PolylineESaIS1_EE17_M_default_appendEy @2621
    _ZNSt6vectorIN5boost10filesystem18directory_iteratorESaIS2_EE17_M_realloc_appendIJS2_EEEvDpOT_ @2622
    _ZNSt6vectorIN5boost10shared_ptrINS0_6detail17shared_state_baseEEESaIS4_EED1Ev @2623
    _ZNSt6vectorIN5boost7polygon10point_dataIxEESaIS3_EE17_M_realloc_appendIJRKS3_EEEvDpOT_ @2624
    _ZNSt6vectorIN5boost7polygon12voronoi_cellIdEESaIS3_EE17_M_realloc_appendIJS3_EEEvDpOT_ @2625
    _ZNSt6vectorIN5boost7polygon12voronoi_edgeIdEESaIS3_EE17_M_realloc_appendIJS3_EEEvDpOT_ @2626
    _ZNSt6vectorIN5boost7polygon13scanline_baseIxE16vertex_half_edgeESaIS4_EE17_M_realloc_appendIJS4_EEEvDpOT_ @2627
    _ZNSt6vectorIN5boost7polygon6detail10site_eventIiEESaIS4_EE17_M_realloc_appendIJS4_EEEvDpOT_ @2628
    _ZNSt6vectorIN6Slic3r13ExtrusionPathESaIS1_EE17_M_realloc_appendIJRKS1_EEEvDpOT_ @2629
    _ZNSt6vectorIN6Slic3r13ExtrusionPathESaIS1_EE17_M_realloc_insertIJRKS1_EEEvN9__gnu_cxx17__normal_iteratorIPS1_S3_EEDpOT_ @2630
    _ZNSt6vectorIN6Slic3r13ExtrusionPathESaIS1_EE6insertEN9__gnu_cxx17__normal_iteratorIPKS1_S3_EERS6_ @2631
    _ZNSt6vectorIN6Slic3r13ExtrusionPathESaIS1_EED1Ev @2632
    _ZNSt6vectorIN6Slic3r13ThickPolylineESaIS1_EE17_M_realloc_appendIJRKS1_EEEvDpOT_ @2633
    _ZNSt6vectorIN6Slic3r13ThickPolylineESaIS1_EE8_M_eraseEN9__gnu_cxx17__normal_iteratorIPS1_S3_EE @2634
    _ZNSt6vectorIN6Slic3r13ThickPolylineESaIS1_EED1Ev @2635
    _ZNSt6vectorIN6Slic3r16IntersectionLineESaIS1_EE17_M_realloc_appendIJRKS1_EEEvDpOT_ @2636
    _ZNSt6vectorIN6Slic3r16IntersectionLineESaIS1_EE9push_backERKS1_ @2637
    _ZNSt6vectorIN6Slic3r17IntersectionPointESaIS1_EE17_M_realloc_appendIJRKS1_EEEvDpOT_ @2638
    _ZNSt6vectorIN6Slic3r17PrintRegionConfigESaIS1_EED1Ev @2639
    _ZNSt6vectorIN6Slic3r22PerimeterGeneratorLoopESaIS1_EE17_M_realloc_appendIJRKS1_EEEvDpOT_ @2640
    _ZNSt6vectorIN6Slic3r22PerimeterGeneratorLoopESaIS1_EE8_M_eraseEN9__gnu_cxx17__normal_iteratorIPS1_S3_EE @2641
    _ZNSt6vectorIN6Slic3r22PerimeterGeneratorLoopESaIS1_EED1Ev @2642
    _ZNSt6vectorIN6Slic3r4LineESaIS1_EE17_M_realloc_appendIJS1_EEEvDpOT_ @2643
    _ZNSt6vectorIN6Slic3r5ModelESaIS1_EE17_M_realloc_appendIJRKS1_EEEvDpOT_ @2644
    _ZNSt6vectorIN6Slic3r5ModelESaIS1_EE9push_backERKS1_ @2645
    _ZNSt6vectorIN6Slic3r5PointESaIS1_EE17_M_default_appendEy @2646
    _ZNSt6vectorIN6Slic3r5PointESaIS1_EE17_M_realloc_appendIJRKS1_EEEvDpOT_ @2647
    _ZNSt6vectorIN6Slic3r5PointESaIS1_EE17_M_realloc_appendIJS1_EEEvDpOT_ @2648
    _ZNSt6vectorIN6Slic3r5PointESaIS1_EE7reserveEy @2649
    _ZNSt6vectorIN6Slic3r5PointESaIS1_EEC1ERKS3_ @2650
    _ZNSt6vectorIN6Slic3r6Point3ESaIS1_EE17_M_realloc_appendIJS1_EEEvDpOT_ @2651
    _ZNSt6vectorIN6Slic3r6PointfESaIS1_EE17_M_realloc_appendIJS1_EEEvDpOT_ @2652
    _ZNSt6vectorIN6Slic3r7Pointf3ESaIS1_EE17_M_realloc_appendIJRKS1_EEEvDpOT_ @2653
    _ZNSt6vectorIN6Slic3r7Pointf3ESaIS1_EE17_M_realloc_appendIJS1_EEEvDpOT_ @2654
    _ZNSt6vectorIN6Slic3r7PolygonESaIS1_EE17_M_default_appendEy @2655
    _ZNSt6vectorIN6Slic3r7PolygonESaIS1_EE17_M_realloc_appendIJRKS1_EEEvDpOT_ @2656
    _ZNSt6vectorIN6Slic3r7PolygonESaIS1_EE17_M_realloc_appendIJS1_EEEvDpOT_ @2657
    _ZNSt6vectorIN6Slic3r7PolygonESaIS1_EE7reserveEy @2658
    _ZNSt6vectorIN6Slic3r7PolygonESaIS1_EE9push_backERKS1_ @2659
    _ZNSt6vectorIN6Slic3r7PolygonESaIS1_EEC1ERKS3_ @2660
    _ZNSt6vectorIN6Slic3r7PolygonESaIS1_EED1Ev @2661
    _ZNSt6vectorIN6Slic3r7SurfaceESaIS1_EE17_M_realloc_appendIJRKS1_EEEvDpOT_ @2662
    _ZNSt6vectorIN6Slic3r7SurfaceESaIS1_EE17_M_realloc_appendIJS1_EEEvDpOT_ @2663
    _ZNSt6vectorIN6Slic3r7SurfaceESaIS1_EE7reserveEy @2664
    _ZNSt6vectorIN6Slic3r7SurfaceESaIS1_EE8_M_eraseEN9__gnu_cxx17__normal_iteratorIPS1_S3_EES7_ @2665
    _ZNSt6vectorIN6Slic3r7SurfaceESaIS1_EED1Ev @2666
    _ZNSt6vectorIN6Slic3r8Geometry16ArrangeItemIndexESaIS2_EE17_M_realloc_insertIJS2_EEEvN9__gnu_cxx17__normal_iteratorIPS2_S4_EEDpOT_ @2667
    _ZNSt6vectorIN6Slic3r8PolylineESaIS1_EE14_M_fill_insertEN9__gnu_cxx17__normal_iteratorIPS1_S3_EEyRKS1_ @2668
    _ZNSt6vectorIN6Slic3r8PolylineESaIS1_EE17_M_realloc_appendIJRKS1_EEEvDpOT_ @2669
    _ZNSt6vectorIN6Slic3r8PolylineESaIS1_EE17_M_realloc_appendIJS1_EEEvDpOT_ @2670
    _ZNSt6vectorIN6Slic3r8PolylineESaIS1_EE7reserveEy @2671
    _ZNSt6vectorIN6Slic3r8PolylineESaIS1_EE8_M_eraseEN9__gnu_cxx17__normal_iteratorIPS1_S3_EE @2672
    _ZNSt6vectorIN6Slic3r8PolylineESaIS1_EED1Ev @2673
    _ZNSt6vectorIN6Slic3r8SLAPrint13SupportPillarESaIS2_EE17_M_realloc_appendIJRKS2_EEEvDpOT_ @2674
    _ZNSt6vectorIN6Slic3r8SLAPrint5LayerESaIS2_EE17_M_realloc_appendIJS2_EEEvDpOT_ @2675
    _ZNSt6vectorIN6Slic3r9ExPolygonESaIS1_EE17_M_default_appendEy @2676
    _ZNSt6vectorIN6Slic3r9ExPolygonESaIS1_EE17_M_realloc_appendIJRKS1_EEEvDpOT_ @2677
    _ZNSt6vectorIN6Slic3r9ExPolygonESaIS1_EE17_M_realloc_appendIJS1_EEEvDpOT_ @2678
    _ZNSt6vectorIN6Slic3r9ExPolygonESaIS1_EE7reserveEy @2679
    _ZNSt6vectorIN6Slic3r9ExPolygonESaIS1_EED1Ev @2680
    _ZNSt6vectorIN7tinyobj10material_tESaIS1_EE17_M_realloc_appendIJRKS1_EEEvDpOT_ @2681
    _ZNSt6vectorIN7tinyobj10material_tESaIS1_EED1Ev @2682
    _ZNSt6vectorIN7tinyobj5tag_tESaIS1_EE17_M_realloc_appendIJRKS1_EEEvDpOT_ @2683
    _ZNSt6vectorIN7tinyobj5tag_tESaIS1_EED1Ev @2684
    _ZNSt6vectorIN7tinyobj6face_tESaIS1_EE17_M_realloc_appendIJRKS1_EEEvDpOT_ @2685
    _ZNSt6vectorIN7tinyobj7index_tESaIS1_EE17_M_realloc_appendIJRKS1_EEEvDpOT_ @2686
    _ZNSt6vectorIN7tinyobj7shape_tESaIS1_EE17_M_realloc_appendIJRKS1_EEEvDpOT_ @2687
    _ZNSt6vectorIN7tinyobj7shape_tESaIS1_EE9push_backERKS1_ @2688
    _ZNSt6vectorINSt7__cxx1112basic_stringIcSt11char_traitsIcESaIcEEESaIS5_EE17_M_default_appendEy @2689
    _ZNSt6vectorINSt7__cxx1112basic_stringIcSt11char_traitsIcESaIcEEESaIS5_EE17_M_realloc_appendIJRKS5_EEEvDpOT_ @2690
    _ZNSt6vectorINSt7__cxx1112basic_stringIcSt11char_traitsIcESaIcEEESaIS5_EE17_M_realloc_appendIJS5_EEEvDpOT_ @2691
    _ZNSt6vectorINSt7__cxx1112basic_stringIcSt11char_traitsIcESaIcEEESaIS5_EE7reserveEy @2692
    _ZNSt6vectorINSt7__cxx1112basic_stringIcSt11char_traitsIcESaIcEEESaIS5_EEC1ERKS7_ @2693
    _ZNSt6vectorINSt7__cxx1112basic_stringIcSt11char_traitsIcESaIcEEESaIS5_EED1Ev @2694
    _ZNSt6vectorINSt7__cxx1112regex_traitsIcE10_RegexMaskESaIS3_EE17_M_realloc_appendIJRKS3_EEEvDpOT_ @2695
    _ZNSt6vectorINSt7__cxx1112regex_traitsIcE10_RegexMaskESaIS3_EEC1ERKS5_ @2696
    _ZNSt6vectorINSt7__cxx119sub_matchIN9__gnu_cxx17__normal_iteratorIPKcNS0_12basic_stringIcSt11char_traitsIcESaIcEEEEEEESaISC_EE14_M_fill_assignEyRKSC_ @2697
    _ZNSt6vectorINSt7__cxx119sub_matchIN9__gnu_cxx17__normal_iteratorIPcNS0_12basic_stringIcSt11char_traitsIcESaIcEEEEEEESaISB_EE14_M_fill_assignEyRKSB_ @2698
    _ZNSt6vectorINSt8__detail6_StateIcEESaIS2_EE17_M_realloc_appendIJS2_EEEvDpOT_ @2699
    _ZNSt6vectorIPKN6Slic3r7SurfaceESaIS3_EE17_M_realloc_appendIJS3_EEEvDpOT_ @2700
    _ZNSt6vectorIPKcSaIS1_EE17_M_default_appendEy @2701
    _ZNSt6vectorIPN10ClipperLib4JoinESaIS2_EE17_M_default_appendEy @2702
    _ZNSt6vectorIPN10ClipperLib4JoinESaIS2_EE17_M_realloc_appendIJRKS2_EEEvDpOT_ @2703
    _ZNSt6vectorIPN10ClipperLib5TEdgeESaIS2_EE17_M_realloc_appendIJRKS2_EEEvDpOT_ @2704
    _ZNSt6vectorIPN10ClipperLib8PolyNodeESaIS2_EE17_M_default_appendEy @2705
    _ZNSt6vectorIPN10ClipperLib8PolyNodeESaIS2_EE17_M_realloc_appendIJRKS2_EEEvDpOT_ @2706
    _ZNSt6vectorIPN10ClipperLib8PolyNodeESaIS2_EE17_M_realloc_appendIJS2_EEEvDpOT_ @2707
    _ZNSt6vectorIPN10ClipperLib8PolyNodeESaIS2_EE7reserveEy @2708
    _ZNSt6vectorIPN3p2t4EdgeESaIS2_EE17_M_realloc_appendIJS2_EEEvDpOT_ @2709
    _ZNSt6vectorIPN3p2t5PointESaIS2_EE17_M_realloc_appendIJRKS2_EEEvDpOT_ @2710
    _ZNSt6vectorIPN3p2t5PointESaIS2_EE17_M_realloc_appendIJS2_EEEvDpOT_ @2711
    _ZNSt6vectorIPN6Slic3r11LayerRegionESaIS2_EE17_M_realloc_appendIJRKS2_EEEvDpOT_ @2712
    _ZNSt6vectorIPN6Slic3r11ModelObjectESaIS2_EE17_M_realloc_appendIJRKS2_EEEvDpOT_ @2713
    _ZNSt6vectorIPN6Slic3r11ModelObjectESaIS2_EE17_M_realloc_appendIJS2_EEEvDpOT_ @2714
    _ZNSt6vectorIPN6Slic3r11ModelVolumeESaIS2_EE17_M_realloc_appendIJRKS2_EEEvDpOT_ @2715
    _ZNSt6vectorIPN6Slic3r12TriangleMeshESaIS2_EE17_M_realloc_appendIJRKS2_EEEvDpOT_ @2716
    _ZNSt6vectorIPN6Slic3r13ModelInstanceESaIS2_EE17_M_realloc_appendIJRKS2_EEEvDpOT_ @2717
    _ZNSt6vectorIPN6Slic3r15ExtrusionEntityESaIS2_EE17_M_realloc_appendIJRKS2_EEEvDpOT_ @2718
    _ZNSt6vectorIPN6Slic3r15ExtrusionEntityESaIS2_EE17_M_realloc_appendIJS2_EEEvDpOT_ @2719
    _ZNSt6vectorIPN6Slic3r15ExtrusionEntityESaIS2_EE7reserveEy @2720
    _ZNSt6vectorIPN6Slic3r16IntersectionLineESaIS2_EE17_M_realloc_appendIJRKS2_EEEvDpOT_ @2721
    _ZNSt6vectorIPN6Slic3r16IntersectionLineESaIS2_EE17_M_realloc_appendIJS2_EEEvDpOT_ @2722
    _ZNSt6vectorIPN6Slic3r7SurfaceESaIS2_EE17_M_realloc_appendIJS2_EEEvDpOT_ @2723
    _ZNSt6vectorIS_IN10ClipperLib8IntPointESaIS1_EESaIS3_EE17_M_default_appendEy @2724
    _ZNSt6vectorIS_IN10ClipperLib8IntPointESaIS1_EESaIS3_EE17_M_realloc_appendIJRKS3_EEEvDpOT_ @2725
    _ZNSt6vectorIS_IN10ClipperLib8IntPointESaIS1_EESaIS3_EE17_M_realloc_appendIJS3_EEEvDpOT_ @2726
    _ZNSt6vectorIS_IN10ClipperLib8IntPointESaIS1_EESaIS3_EE7reserveEy @2727
    _ZNSt6vectorIS_IN10ClipperLib8IntPointESaIS1_EESaIS3_EED1Ev @2728
    _ZNSt6vectorIS_IN6Slic3r16IntersectionLineESaIS1_EESaIS3_EED1Ev @2729
    _ZNSt6vectorIS_IN6Slic3r22PerimeterGeneratorLoopESaIS1_EESaIS3_EED1Ev @2730
    _ZNSt6vectorIS_IN6Slic3r6PointfESaIS1_EESaIS3_EE17_M_realloc_appendIJS3_EEEvDpOT_ @2731
    _ZNSt6vectorIS_IN6Slic3r6PointfESaIS1_EESaIS3_EED1Ev @2732
    _ZNSt6vectorIS_IN6Slic3r7PolygonESaIS1_EESaIS3_EE17_M_default_appendEy @2733
    _ZNSt6vectorIS_IN6Slic3r7PolygonESaIS1_EESaIS3_EED1Ev @2734
    _ZNSt6vectorIS_IN6Slic3r9ExPolygonESaIS1_EESaIS3_EE17_M_default_appendEy @2735
    _ZNSt6vectorIS_IN6Slic3r9ExPolygonESaIS1_EESaIS3_EED1Ev @2736
    _ZNSt6vectorIS_IPKN6Slic3r7SurfaceESaIS3_EESaIS5_EE17_M_default_appendEy @2737
    _ZNSt6vectorIS_IPKN6Slic3r7SurfaceESaIS3_EESaIS5_EED1Ev @2738
    _ZNSt6vectorIS_IPN6Slic3r16IntersectionLineESaIS2_EESaIS4_EED1Ev @2739
    _ZNSt6vectorIS_IPN6Slic3r7SurfaceESaIS2_EESaIS4_EE17_M_default_appendEy @2740
    _ZNSt6vectorIS_IiSaIiEESaIS1_EE17_M_default_appendEy @2741
    _ZNSt6vectorIS_IiSaIiEESaIS1_EED1Ev @2742
    _ZNSt6vectorISt4pairIN5boost7polygon13scanline_baseIxE16vertex_half_edgeEPNS2_27polygon_arbitrary_formationIxE21active_tail_arbitraryEESaISA_EE17_M_realloc_appendIJSA_EEEvDpOT_ @2743
    _ZNSt6vectorISt4pairINSt7__cxx1112basic_stringIcSt11char_traitsIcESaIcEEES6_ESaIS7_EE17_M_realloc_appendIJS7_EEEvDpOT_ @2744
    _ZNSt6vectorISt4pairINSt7__cxx1112basic_stringIcSt11char_traitsIcESaIcEEES6_ESaIS7_EEC1ERKS9_ @2745
    _ZNSt6vectorISt4pairINSt7__cxx1112basic_stringIcSt11char_traitsIcESaIcEEES6_ESaIS7_EED1Ev @2746
    _ZNSt6vectorISt4pairIS0_IN5boost7polygon10point_dataIxEES4_ES0_IiiEESaIS7_EE17_M_realloc_appendIJS7_EEEvDpOT_ @2747
    _ZNSt6vectorISt4pairIS0_IN5boost7polygon10point_dataIxEES4_ES_IS0_IiiESaIS6_EEESaIS9_EE17_M_realloc_appendIJRKS9_EEEvDpOT_ @2748
    _ZNSt6vectorISt4pairIS0_IN5boost7polygon10point_dataIxEES4_EiESaIS6_EE17_M_realloc_appendIJRKS6_EEEvDpOT_ @2749
    _ZNSt6vectorISt4pairIS0_IN5boost7polygon10point_dataIxEES4_EiESaIS6_EE17_M_realloc_appendIJS6_EEEvDpOT_ @2750
    _ZNSt6vectorISt4pairIS0_IS0_IN5boost7polygon10point_dataIxEES4_EiEPNS2_27polygon_arbitrary_formationIxE21active_tail_arbitraryEESaISB_EE17_M_realloc_appendIJSB_EEEvDpOT_ @2751
    _ZNSt6vectorISt4pairIccESaIS1_EE17_M_realloc_appendIJS1_EEEvDpOT_ @2752
    _ZNSt6vectorISt4pairIiiESaIS1_EE17_M_realloc_appendIJRKS1_EEEvDpOT_ @2753
    _ZNSt6vectorISt4pairIiiESaIS1_EE17_M_realloc_appendIJS1_EEEvDpOT_ @2754
    _ZNSt6vectorISt4pairIiiESaIS1_EE7reserveEy @2755
    _ZNSt6vectorISt4pairIlS_INSt7__cxx119sub_matchIN9__gnu_cxx17__normal_iteratorIPKcNS1_12basic_stringIcSt11char_traitsIcESaIcEEEEEEESaISD_EEESaISG_EE17_M_realloc_appendIJRlRKSF_EEEvDpOT_ @2756
    _ZNSt6vectorISt4pairIlS_INSt7__cxx119sub_matchIN9__gnu_cxx17__normal_iteratorIPKcNS1_12basic_stringIcSt11char_traitsIcESaIcEEEEEEESaISD_EEESaISG_EED1Ev @2757
    _ZNSt6vectorISt4pairIlS_INSt7__cxx119sub_matchIN9__gnu_cxx17__normal_iteratorIPcNS1_12basic_stringIcSt11char_traitsIcESaIcEEEEEEESaISC_EEESaISF_EE17_M_realloc_appendIJRlRKSE_EEEvDpOT_ @2758
    _ZNSt6vectorISt4pairIlS_INSt7__cxx119sub_matchIN9__gnu_cxx17__normal_iteratorIPcNS1_12basic_stringIcSt11char_traitsIcESaIcEEEEEEESaISC_EEESaISF_EED1Ev @2759
    _ZNSt6vectorISt4pairIxS0_IyyEESaIS2_EE17_M_realloc_appendIJS2_EEEvDpOT_ @2760
    _ZNSt6vectorISt4pairIxiESaIS1_EE17_M_realloc_appendIJS1_EEEvDpOT_ @2761
    _ZNSt6vectorIbSaIbEE9push_backEb @2762
    _ZNSt6vectorIbSaIbEEC1ERKS1_ @2763
    _ZNSt6vectorIcSaIcEE17_M_realloc_appendIJRKcEEEvDpOT_ @2764
    _ZNSt6vectorIcSaIcEEC1ERKS1_ @2765
    _ZNSt6vectorIdSaIdEE14_M_fill_insertEN9__gnu_cxx17__normal_iteratorIPdS1_EEyRKd @2766
    _ZNSt6vectorIdSaIdEE14_M_insert_rvalEN9__gnu_cxx17__normal_iteratorIPKdS1_EEOd @2767
    _ZNSt6vectorIdSaIdEE17_M_default_appendEy @2768
    _ZNSt6vectorIdSaIdEE17_M_realloc_appendIJRKdEEEvDpOT_ @2769
    _ZNSt6vectorIdSaIdEE17_M_realloc_appendIJdEEEvDpOT_ @2770
    _ZNSt6vectorIfSaIfEE17_M_default_appendEy @2771
    _ZNSt6vectorIfSaIfEE17_M_realloc_appendIJRKfEEEvDpOT_ @2772
    _ZNSt6vectorIfSaIfEE17_M_realloc_appendIJfEEEvDpOT_ @2773
    _ZNSt6vectorIfSaIfEEC1ERKS1_ @2774
    _ZNSt6vectorIiSaIiEE17_M_default_appendEy @2775
    _ZNSt6vectorIiSaIiEE17_M_realloc_appendIJRKiEEEvDpOT_ @2776
    _ZNSt6vectorIiSaIiEE17_M_realloc_appendIJiEEEvDpOT_ @2777
    _ZNSt6vectorIiSaIiEE17_M_realloc_insertIJRKiEEEvN9__gnu_cxx17__normal_iteratorIPiS1_EEDpOT_ @2778
    _ZNSt6vectorIjSaIjEE17_M_realloc_appendIJRKjEEEvDpOT_ @2779
    _ZNSt6vectorIxSaIxEE14_M_fill_insertEN9__gnu_cxx17__normal_iteratorIPxS1_EEyRKx @2780
    _ZNSt6vectorIxSaIxEE17_M_realloc_appendIJRKxEEEvDpOT_ @2781
    _ZNSt6vectorIySaIyEE17_M_default_appendEy @2782
    _ZNSt6vectorIySaIyEE17_M_realloc_appendIJRKyEEEvDpOT_ @2783
    _ZNSt6vectorIySaIyEE17_M_realloc_appendIJyEEEvDpOT_ @2784
    _ZNSt7__cxx1110_List_baseI8TPPLPolySaIS1_EE8_M_clearEv @2785
    _ZNSt7__cxx1111basic_regexIcNS_12regex_traitsIcEEE10_M_compileEPKcS5_NSt15regex_constants18syntax_option_typeE @2786
    _ZNSt7__cxx1111basic_regexIcNS_12regex_traitsIcEEED1Ev @2787
    _ZNSt7__cxx1120regex_token_iteratorIN9__gnu_cxx17__normal_iteratorIPKcNS_12basic_stringIcSt11char_traitsIcESaIcEEEEEcNS_12regex_traitsIcEEE19_M_normalize_resultEv @2788
    _ZNSt7__cxx1120regex_token_iteratorIN9__gnu_cxx17__normal_iteratorIPKcNS_12basic_stringIcSt11char_traitsIcESaIcEEEEEcNS_12regex_traitsIcEEEC1ERKSD_ @2789
    _ZNSt7__cxx1120regex_token_iteratorIN9__gnu_cxx17__normal_iteratorIPKcNS_12basic_stringIcSt11char_traitsIcESaIcEEEEEcNS_12regex_traitsIcEEED1Ev @2790
    _ZNSt7__cxx114listIlSaIlEE4sortEv @2791
    _ZNSt7__cxx114listIxSaIxEE4sortEv @2792
    _ZNSt8_Rb_treeIN13TPPLPartition12ScanLineEdgeES1_St9_IdentityIS1_ESt4lessIS1_ESaIS1_EE16_M_insert_uniqueIRKS1_EESt4pairISt17_Rb_tree_iteratorIS1_EbEOT_ @2793
    _ZNSt8_Rb_treeIN5boost7polygon13scanline_baseIxE16vertex_half_edgeESt4pairIKS4_PNS1_27polygon_arbitrary_formationIxE21active_tail_arbitraryEESt10_Select1stISB_ENS3_21less_vertex_half_edgeESaISB_EE22_M_emplace_hint_uniqueIJRS5_IS4_SA_EEEESt17_Rb_tree_iteratorISB_ESt23_Rb_tree_const_iteratorISB_EDpOT_ @2794
    _ZNSt8_Rb_treeIN5boost7polygon13scanline_baseIxE16vertex_half_edgeESt4pairIKS4_PNS1_27polygon_arbitrary_formationIxE21active_tail_arbitraryEESt10_Select1stISB_ENS3_21less_vertex_half_edgeESaISB_EE24_M_get_insert_unique_posERS6_ @2795
    _ZNSt8_Rb_treeIN5boost7polygon6detail19beach_line_node_keyINS2_10site_eventIiEEEESt4pairIKS6_NS2_20beach_line_node_dataIvNS2_12circle_eventIdEEEEESt10_Select1stISD_ENS2_18voronoi_predicatesINS2_20voronoi_ctype_traitsIiEEE25node_comparison_predicateIS6_EESaISD_EE24_M_get_insert_unique_posERS8_ @2796
    _ZNSt8_Rb_treeIN5boost7polygon6detail19beach_line_node_keyINS2_10site_eventIiEEEESt4pairIKS6_NS2_20beach_line_node_dataIvNS2_12circle_eventIdEEEEESt10_Select1stISD_ENS2_18voronoi_predicatesINS2_20voronoi_ctype_traitsIiEEE25node_comparison_predicateIS6_EESaISD_EE29_M_get_insert_hint_unique_posESt23_Rb_tree_const_iteratorISD_ERS8_ @2797
    _ZNSt8_Rb_treeINSt7__cxx1112basic_stringIcSt11char_traitsIcESaIcEEESt4pairIKS5_N6Slic3r15ConfigOptionDefEESt10_Select1stISA_ESt4lessIS5_ESaISA_EE22_M_emplace_hint_uniqueIJS6_IS5_S9_EEEESt17_Rb_tree_iteratorISA_ESt23_Rb_tree_const_iteratorISA_EDpOT_ @2798
    _ZNSt8_Rb_treeINSt7__cxx1112basic_stringIcSt11char_traitsIcESaIcEEESt4pairIKS5_S5_ESt10_Select1stIS8_ESt4lessIS5_ESaIS8_EE22_M_emplace_hint_uniqueIJS6_IS5_S5_EEEESt17_Rb_tree_iteratorIS8_ESt23_Rb_tree_const_iteratorIS8_EDpOT_ @2799
    _ZNSt8_Rb_treeINSt7__cxx1112basic_stringIcSt11char_traitsIcESaIcEEESt4pairIKS5_iESt10_Select1stIS8_ESt4lessIS5_ESaIS8_EE22_M_emplace_hint_uniqueIJS6_IS5_iEEEESt17_Rb_tree_iteratorIS8_ESt23_Rb_tree_const_iteratorIS8_EDpOT_ @2800
    _ZNSt8_Rb_treeISt4pairIN5boost7polygon10point_dataIxEES4_ES0_IKS5_St6vectorIS0_IiiESaIS8_EEESt10_Select1stISB_ENS2_13scanline_baseIxE14less_half_edgeESaISB_EE22_M_emplace_hint_uniqueIJRS0_IS5_SA_EEEESt17_Rb_tree_iteratorISB_ESt23_Rb_tree_const_iteratorISB_EDpOT_ @2801
    _ZNSt8_Rb_treeISt4pairIN5boost7polygon10point_dataIxEES4_ES0_IKS5_St6vectorIS0_IiiESaIS8_EEESt10_Select1stISB_ENS2_13scanline_baseIxE14less_half_edgeESaISB_EE24_M_get_insert_unique_posERS6_ @2802
    _ZNSt8_Rb_treeISt4pairIfdES0_IKS1_N6Slic3r13FillHoneycomb9CacheDataEESt10_Select1stIS6_ESt4lessIS1_ESaIS6_EE22_M_emplace_hint_uniqueIJS0_IS1_S5_EEEESt17_Rb_tree_iteratorIS6_ESt23_Rb_tree_const_iteratorIS6_EDpOT_ @2803
    _ZNSt8_Rb_treeIdSt4pairIKdSt6vectorIN6Slic3r7PolygonESaIS4_EEESt10_Select1stIS7_ESt4lessIdESaIS7_EEC1ERKSD_ @2804
    _ZNSt8__detail15_BracketMatcherINSt7__cxx1112regex_traitsIcEELb0ELb0EE8_M_readyEv @2805
    _ZNSt8__detail15_BracketMatcherINSt7__cxx1112regex_traitsIcEELb0ELb0EED1Ev @2806
    _ZNSt8__detail15_BracketMatcherINSt7__cxx1112regex_traitsIcEELb0ELb1EE13_M_make_rangeEcc @2807
    _ZNSt8__detail15_BracketMatcherINSt7__cxx1112regex_traitsIcEELb0ELb1EE8_M_readyEv @2808
    _ZNSt8__detail15_BracketMatcherINSt7__cxx1112regex_traitsIcEELb0ELb1EED1Ev @2809
    _ZNSt8__detail15_BracketMatcherINSt7__cxx1112regex_traitsIcEELb1ELb0EE8_M_readyEv @2810
    _ZNSt8__detail15_BracketMatcherINSt7__cxx1112regex_traitsIcEELb1ELb0EED1Ev @2811
    _ZNSt8__detail15_BracketMatcherINSt7__cxx1112regex_traitsIcEELb1ELb1EE13_M_make_rangeEcc @2812
    _ZNSt8__detail15_BracketMatcherINSt7__cxx1112regex_traitsIcEELb1ELb1EE8_M_readyEv @2813
    _ZNSt8__detail15_BracketMatcherINSt7__cxx1112regex_traitsIcEELb1ELb1EED1Ev @2814
    _ZNSt8__detail17__regex_algo_implIN9__gnu_cxx17__normal_iteratorIPKcNSt7__cxx1112basic_stringIcSt11char_traitsIcESaIcEEEEESaINS5_9sub_matchISB_EEEcNS5_12regex_traitsIcEEEEbT_SH_RNS5_13match_resultsISH_T0_EERKNS5_11basic_regexIT1_T2_EENSt15regex_constants15match_flag_typeENS_20_RegexExecutorPolicyEb @2815
    _ZNSt8__detail17__regex_algo_implIN9__gnu_cxx17__normal_iteratorIPcNSt7__cxx1112basic_stringIcSt11char_traitsIcESaIcEEEEESaINS4_9sub_matchISA_EEEcNS4_12regex_traitsIcEEEEbT_SG_RNS4_13match_resultsISG_T0_EERKNS4_11basic_regexIT1_T2_EENSt15regex_constants15match_flag_typeENS_20_RegexExecutorPolicyEb @2816
    _ZNSt8__detail4_NFAINSt7__cxx1112regex_traitsIcEEE15_M_insert_dummyEv @2817
    _ZNSt8__detail4_NFAINSt7__cxx1112regex_traitsIcEEE15_M_insert_stateENS_6_StateIcEE @2818
    _ZNSt8__detail4_NFAINSt7__cxx1112regex_traitsIcEEE16_M_insert_acceptEv @2819
    _ZNSt8__detail4_NFAINSt7__cxx1112regex_traitsIcEEE16_M_insert_repeatEllb @2820
    _ZNSt8__detail4_NFAINSt7__cxx1112regex_traitsIcEEE17_M_insert_backrefEy @2821
    _ZNSt8__detail4_NFAINSt7__cxx1112regex_traitsIcEEE17_M_insert_matcherESt8functionIFbcEE @2822
    _ZNSt8__detail4_NFAINSt7__cxx1112regex_traitsIcEEE21_M_insert_subexpr_endEv @2823
    _ZNSt8__detail4_NFAINSt7__cxx1112regex_traitsIcEEE23_M_insert_subexpr_beginEv @2824
    _ZNSt8__detail8_ScannerIcE10_M_advanceEv @2825
    _ZNSt8__detail8_ScannerIcE12_M_eat_classEc @2826
    _ZNSt8__detail8_ScannerIcE14_M_scan_normalEv @2827
    _ZNSt8__detail8_ScannerIcE16_M_scan_in_braceEv @2828
    _ZNSt8__detail8_ScannerIcE17_M_eat_escape_awkEv @2829
    _ZNSt8__detail8_ScannerIcE18_M_eat_escape_ecmaEv @2830
    _ZNSt8__detail8_ScannerIcE18_M_scan_in_bracketEv @2831
    _ZNSt8__detail8_ScannerIcE19_M_eat_escape_posixEv @2832
    _ZNSt8__detail9_CompilerINSt7__cxx1112regex_traitsIcEEE11_M_try_charEv @2833
    _ZNSt8__detail9_CompilerINSt7__cxx1112regex_traitsIcEEE12_M_assertionEv @2834
    _ZNSt8__detail9_CompilerINSt7__cxx1112regex_traitsIcEEE13_M_quantifierEv @2835
    _ZNSt8__detail9_CompilerINSt7__cxx1112regex_traitsIcEEE14_M_alternativeEv @2836
    _ZNSt8__detail9_CompilerINSt7__cxx1112regex_traitsIcEEE14_M_disjunctionEv @2837
    _ZNSt8__detail9_CompilerINSt7__cxx1112regex_traitsIcEEE16_M_cur_int_valueEi @2838
    _ZNSt8__detail9_CompilerINSt7__cxx1112regex_traitsIcEEE18_M_expression_termILb0ELb0EEEbRNS4_13_BracketStateERNS_15_BracketMatcherIS3_XT_EXT0_EEE @2839
    _ZNSt8__detail9_CompilerINSt7__cxx1112regex_traitsIcEEE18_M_expression_termILb0ELb1EEEbRNS4_13_BracketStateERNS_15_BracketMatcherIS3_XT_EXT0_EEE @2840
    _ZNSt8__detail9_CompilerINSt7__cxx1112regex_traitsIcEEE18_M_expression_termILb1ELb0EEEbRNS4_13_BracketStateERNS_15_BracketMatcherIS3_XT_EXT0_EEE @2841
    _ZNSt8__detail9_CompilerINSt7__cxx1112regex_traitsIcEEE18_M_expression_termILb1ELb1EEEbRNS4_13_BracketStateERNS_15_BracketMatcherIS3_XT_EXT0_EEE @2842
    _ZNSt8__detail9_CompilerINSt7__cxx1112regex_traitsIcEEE21_M_bracket_expressionEv @2843
    _ZNSt8__detail9_CompilerINSt7__cxx1112regex_traitsIcEEE22_M_insert_char_matcherILb0ELb0EEEvv @2844
    _ZNSt8__detail9_CompilerINSt7__cxx1112regex_traitsIcEEE22_M_insert_char_matcherILb0ELb1EEEvv @2845
    _ZNSt8__detail9_CompilerINSt7__cxx1112regex_traitsIcEEE22_M_insert_char_matcherILb1ELb0EEEvv @2846
    _ZNSt8__detail9_CompilerINSt7__cxx1112regex_traitsIcEEE22_M_insert_char_matcherILb1ELb1EEEvv @2847
    _ZNSt8__detail9_CompilerINSt7__cxx1112regex_traitsIcEEE25_M_insert_bracket_matcherILb0ELb0EEEvb @2848
    _ZNSt8__detail9_CompilerINSt7__cxx1112regex_traitsIcEEE25_M_insert_bracket_matcherILb0ELb1EEEvb @2849
    _ZNSt8__detail9_CompilerINSt7__cxx1112regex_traitsIcEEE25_M_insert_bracket_matcherILb1ELb0EEEvb @2850
    _ZNSt8__detail9_CompilerINSt7__cxx1112regex_traitsIcEEE25_M_insert_bracket_matcherILb1ELb1EEEvb @2851
    _ZNSt8__detail9_CompilerINSt7__cxx1112regex_traitsIcEEE26_M_insert_any_matcher_ecmaILb0ELb0EEEvv @2852
    _ZNSt8__detail9_CompilerINSt7__cxx1112regex_traitsIcEEE26_M_insert_any_matcher_ecmaILb0ELb1EEEvv @2853
    _ZNSt8__detail9_CompilerINSt7__cxx1112regex_traitsIcEEE26_M_insert_any_matcher_ecmaILb1ELb0EEEvv @2854
    _ZNSt8__detail9_CompilerINSt7__cxx1112regex_traitsIcEEE26_M_insert_any_matcher_ecmaILb1ELb1EEEvv @2855
    _ZNSt8__detail9_CompilerINSt7__cxx1112regex_traitsIcEEE27_M_insert_any_matcher_posixILb0ELb0EEEvv @2856
    _ZNSt8__detail9_CompilerINSt7__cxx1112regex_traitsIcEEE27_M_insert_any_matcher_posixILb0ELb1EEEvv @2857
    _ZNSt8__detail9_CompilerINSt7__cxx1112regex_traitsIcEEE27_M_insert_any_matcher_posixILb1ELb0EEEvv @2858
    _ZNSt8__detail9_CompilerINSt7__cxx1112regex_traitsIcEEE27_M_insert_any_matcher_posixILb1ELb1EEEvv @2859
    _ZNSt8__detail9_CompilerINSt7__cxx1112regex_traitsIcEEE33_M_insert_character_class_matcherILb0ELb0EEEvv @2860
    _ZNSt8__detail9_CompilerINSt7__cxx1112regex_traitsIcEEE33_M_insert_character_class_matcherILb0ELb1EEEvv @2861
    _ZNSt8__detail9_CompilerINSt7__cxx1112regex_traitsIcEEE33_M_insert_character_class_matcherILb1ELb0EEEvv @2862
    _ZNSt8__detail9_CompilerINSt7__cxx1112regex_traitsIcEEE33_M_insert_character_class_matcherILb1ELb1EEEvv @2863
    _ZNSt8__detail9_CompilerINSt7__cxx1112regex_traitsIcEEE6_M_popEv @2864
    _ZNSt8__detail9_CompilerINSt7__cxx1112regex_traitsIcEEE7_M_atomEv @2865
    _ZNSt8__detail9_ExecutorIN9__gnu_cxx17__normal_iteratorIPKcNSt7__cxx1112basic_stringIcSt11char_traitsIcESaIcEEEEESaINS5_9sub_matchISB_EEENS5_12regex_traitsIcEELb0EE12_M_lookaheadEl @2866
    _ZNSt8__detail9_ExecutorIN9__gnu_cxx17__normal_iteratorIPKcNSt7__cxx1112basic_stringIcSt11char_traitsIcESaIcEEEEESaINS5_9sub_matchISB_EEENS5_12regex_traitsIcEELb0EE16_M_handle_repeatENSH_11_Match_modeEl @2867
    _ZNSt8__detail9_ExecutorIN9__gnu_cxx17__normal_iteratorIPKcNSt7__cxx1112basic_stringIcSt11char_traitsIcESaIcEEEEESaINS5_9sub_matchISB_EEENS5_12regex_traitsIcEELb0EE16_M_rep_once_moreENSH_11_Match_modeEl @2868
    _ZNSt8__detail9_ExecutorIN9__gnu_cxx17__normal_iteratorIPKcNSt7__cxx1112basic_stringIcSt11char_traitsIcESaIcEEEEESaINS5_9sub_matchISB_EEENS5_12regex_traitsIcEELb0EE17_M_handle_backrefENSH_11_Match_modeEl @2869
    _ZNSt8__detail9_ExecutorIN9__gnu_cxx17__normal_iteratorIPKcNSt7__cxx1112basic_stringIcSt11char_traitsIcESaIcEEEEESaINS5_9sub_matchISB_EEENS5_12regex_traitsIcEELb0EE21_M_handle_alternativeENSH_11_Match_modeEl @2870
    _ZNSt8__detail9_ExecutorIN9__gnu_cxx17__normal_iteratorIPKcNSt7__cxx1112basic_stringIcSt11char_traitsIcESaIcEEEEESaINS5_9sub_matchISB_EEENS5_12regex_traitsIcEELb0EE21_M_handle_subexpr_endENSH_11_Match_modeEl @2871
    _ZNSt8__detail9_ExecutorIN9__gnu_cxx17__normal_iteratorIPKcNSt7__cxx1112basic_stringIcSt11char_traitsIcESaIcEEEEESaINS5_9sub_matchISB_EEENS5_12regex_traitsIcEELb0EE23_M_handle_word_boundaryENSH_11_Match_modeEl @2872
    _ZNSt8__detail9_ExecutorIN9__gnu_cxx17__normal_iteratorIPKcNSt7__cxx1112basic_stringIcSt11char_traitsIcESaIcEEEEESaINS5_9sub_matchISB_EEENS5_12regex_traitsIcEELb0EE6_M_dfsENSH_11_Match_modeEl @2873
    _ZNSt8__detail9_ExecutorIN9__gnu_cxx17__normal_iteratorIPKcNSt7__cxx1112basic_stringIcSt11char_traitsIcESaIcEEEEESaINS5_9sub_matchISB_EEENS5_12regex_traitsIcEELb0EED1Ev @2874
    _ZNSt8__detail9_ExecutorIN9__gnu_cxx17__normal_iteratorIPKcNSt7__cxx1112basic_stringIcSt11char_traitsIcESaIcEEEEESaINS5_9sub_matchISB_EEENS5_12regex_traitsIcEELb1EE12_M_lookaheadEl @2875
    _ZNSt8__detail9_ExecutorIN9__gnu_cxx17__normal_iteratorIPKcNSt7__cxx1112basic_stringIcSt11char_traitsIcESaIcEEEEESaINS5_9sub_matchISB_EEENS5_12regex_traitsIcEELb1EE16_M_rep_once_moreENSH_11_Match_modeEl @2876
    _ZNSt8__detail9_ExecutorIN9__gnu_cxx17__normal_iteratorIPKcNSt7__cxx1112basic_stringIcSt11char_traitsIcESaIcEEEEESaINS5_9sub_matchISB_EEENS5_12regex_traitsIcEELb1EE6_M_dfsENSH_11_Match_modeEl @2877
    _ZNSt8__detail9_ExecutorIN9__gnu_cxx17__normal_iteratorIPKcNSt7__cxx1112basic_stringIcSt11char_traitsIcESaIcEEEEESaINS5_9sub_matchISB_EEENS5_12regex_traitsIcEELb1EED1Ev @2878
    _ZNSt8__detail9_ExecutorIN9__gnu_cxx17__normal_iteratorIPcNSt7__cxx1112basic_stringIcSt11char_traitsIcESaIcEEEEESaINS4_9sub_matchISA_EEENS4_12regex_traitsIcEELb0EE12_M_lookaheadEl @2879
    _ZNSt8__detail9_ExecutorIN9__gnu_cxx17__normal_iteratorIPcNSt7__cxx1112basic_stringIcSt11char_traitsIcESaIcEEEEESaINS4_9sub_matchISA_EEENS4_12regex_traitsIcEELb0EE16_M_handle_repeatENSG_11_Match_modeEl @2880
    _ZNSt8__detail9_ExecutorIN9__gnu_cxx17__normal_iteratorIPcNSt7__cxx1112basic_stringIcSt11char_traitsIcESaIcEEEEESaINS4_9sub_matchISA_EEENS4_12regex_traitsIcEELb0EE16_M_rep_once_moreENSG_11_Match_modeEl @2881
    _ZNSt8__detail9_ExecutorIN9__gnu_cxx17__normal_iteratorIPcNSt7__cxx1112basic_stringIcSt11char_traitsIcESaIcEEEEESaINS4_9sub_matchISA_EEENS4_12regex_traitsIcEELb0EE17_M_handle_backrefENSG_11_Match_modeEl @2882
    _ZNSt8__detail9_ExecutorIN9__gnu_cxx17__normal_iteratorIPcNSt7__cxx1112basic_stringIcSt11char_traitsIcESaIcEEEEESaINS4_9sub_matchISA_EEENS4_12regex_traitsIcEELb0EE21_M_handle_alternativeENSG_11_Match_modeEl @2883
    _ZNSt8__detail9_ExecutorIN9__gnu_cxx17__normal_iteratorIPcNSt7__cxx1112basic_stringIcSt11char_traitsIcESaIcEEEEESaINS4_9sub_matchISA_EEENS4_12regex_traitsIcEELb0EE21_M_handle_subexpr_endENSG_11_Match_modeEl @2884
    _ZNSt8__detail9_ExecutorIN9__gnu_cxx17__normal_iteratorIPcNSt7__cxx1112basic_stringIcSt11char_traitsIcESaIcEEEEESaINS4_9sub_matchISA_EEENS4_12regex_traitsIcEELb0EE23_M_handle_word_boundaryENSG_11_Match_modeEl @2885
    _ZNSt8__detail9_ExecutorIN9__gnu_cxx17__normal_iteratorIPcNSt7__cxx1112basic_stringIcSt11char_traitsIcESaIcEEEEESaINS4_9sub_matchISA_EEENS4_12regex_traitsIcEELb0EE6_M_dfsENSG_11_Match_modeEl @2886
    _ZNSt8__detail9_ExecutorIN9__gnu_cxx17__normal_iteratorIPcNSt7__cxx1112basic_stringIcSt11char_traitsIcESaIcEEEEESaINS4_9sub_matchISA_EEENS4_12regex_traitsIcEELb0EED1Ev @2887
    _ZNSt8__detail9_ExecutorIN9__gnu_cxx17__normal_iteratorIPcNSt7__cxx1112basic_stringIcSt11char_traitsIcESaIcEEEEESaINS4_9sub_matchISA_EEENS4_12regex_traitsIcEELb1EE12_M_lookaheadEl @2888
    _ZNSt8__detail9_ExecutorIN9__gnu_cxx17__normal_iteratorIPcNSt7__cxx1112basic_stringIcSt11char_traitsIcESaIcEEEEESaINS4_9sub_matchISA_EEENS4_12regex_traitsIcEELb1EE16_M_rep_once_moreENSG_11_Match_modeEl @2889
    _ZNSt8__detail9_ExecutorIN9__gnu_cxx17__normal_iteratorIPcNSt7__cxx1112basic_stringIcSt11char_traitsIcESaIcEEEEESaINS4_9sub_matchISA_EEENS4_12regex_traitsIcEELb1EE6_M_dfsENSG_11_Match_modeEl @2890
    _ZNSt8__detail9_ExecutorIN9__gnu_cxx17__normal_iteratorIPcNSt7__cxx1112basic_stringIcSt11char_traitsIcESaIcEEEEESaINS4_9sub_matchISA_EEENS4_12regex_traitsIcEELb1EED1Ev @2891
    _ZNSt8__detail9_StateSeqINSt7__cxx1112regex_traitsIcEEE8_M_cloneEv @2892
    _ZSt13__adjust_heapIN9__gnu_cxx17__normal_iteratorIPN5boost7polygon6detail10site_eventIiEESt6vectorIS6_SaIS6_EEEExS6_NS0_5__ops15_Iter_comp_iterINS4_18voronoi_predicatesINS4_20voronoi_ctype_traitsIiEEE26event_comparison_predicateIS6_NS4_12circle_eventIdEEEEEEEvT_T0_SO_T1_T2_ @2893
    _ZSt13__adjust_heapIN9__gnu_cxx17__normal_iteratorIPN6Slic3r5PointESt6vectorIS3_SaIS3_EEEExS3_NS0_5__ops15_Iter_comp_iterIPFbS3_S3_EEEEvT_T0_SF_T1_T2_ @2894
    _ZSt13__adjust_heapIN9__gnu_cxx17__normal_iteratorIPN6Slic3r6PointfESt6vectorIS3_SaIS3_EEEExS3_NS0_5__ops15_Iter_comp_iterIPFbRS3_SB_EEEEvT_T0_SG_T1_T2_ @2895
    _ZSt13__adjust_heapIN9__gnu_cxx17__normal_iteratorIPPN10ClipperLib13IntersectNodeESt6vectorIS4_SaIS4_EEEExS4_NS0_5__ops15_Iter_comp_iterIPFbS4_S4_EEEEvT_T0_SG_T1_T2_ @2896
    _ZSt13__adjust_heapIN9__gnu_cxx17__normal_iteratorIPPN3p2t5PointESt6vectorIS4_SaIS4_EEEExS4_NS0_5__ops15_Iter_comp_iterIPFbPKS3_SD_EEEEvT_T0_SI_T1_T2_ @2897
    _ZSt13__adjust_heapIN9__gnu_cxx17__normal_iteratorIPSt4pairIN5boost7polygon10point_dataIxEEiESt6vectorIS7_SaIS7_EEEExS7_NS0_5__ops15_Iter_comp_iterINS4_27polygon_arbitrary_formationIxE20less_half_edge_countEEEEvT_T0_SK_T1_T2_ @2898
    _ZSt13__adjust_heapIN9__gnu_cxx17__normal_iteratorIPSt4pairIS2_IN5boost7polygon10point_dataIxEES6_ES2_IiiEESt6vectorIS9_SaIS9_EEEExS9_NS0_5__ops15_Iter_comp_iterINS4_20arbitrary_boolean_opIxE16less_vertex_dataIS9_EEEEEvT_T0_SN_T1_T2_ @2899
    _ZSt13__adjust_heapIN9__gnu_cxx17__normal_iteratorIPSt4pairIS2_IS2_IN5boost7polygon10point_dataIxEES6_EiEPNS4_27polygon_arbitrary_formationIxE21active_tail_arbitraryEESt6vectorISD_SaISD_EEEExSD_NS0_5__ops15_Iter_comp_iterINSA_19less_incoming_countEEEEvT_T0_SO_T1_T2_ @2900
    _ZSt13__adjust_heapIN9__gnu_cxx17__normal_iteratorIPySt6vectorIySaIyEEEExyNS0_5__ops15_Iter_comp_iterIN6Slic3r10_area_compEEEEvT_T0_SD_T1_T2_ @2901
    _ZSt13__adjust_heapIPlxlN9__gnu_cxx5__ops15_Iter_comp_iterIN13TPPLPartition12VertexSorterEEEEvT_T0_S8_T1_T2_ @2902
    _ZSt13__heap_selectIN9__gnu_cxx17__normal_iteratorIPN5boost7polygon10point_dataIxEESt6vectorIS5_SaIS5_EEEENS0_5__ops15_Iter_comp_iterINS3_17line_intersectionIxE21less_point_down_slopeEEEEvT_SH_SH_T0_ @2903
    _ZSt13__heap_selectIN9__gnu_cxx17__normal_iteratorIPN5boost7polygon10point_dataIxEESt6vectorIS5_SaIS5_EEEENS0_5__ops15_Iter_less_iterEEvT_SD_SD_T0_ @2904
    _ZSt13__heap_selectIPlN9__gnu_cxx5__ops15_Iter_comp_iterIN13TPPLPartition12VertexSorterEEEEvT_S7_S7_T0_ @2905
    _ZSt14__copy_move_a1ILb0EPPN6Slic3r17SurfaceCollectionES2_EN9__gnu_cxx11__enable_ifIXsrSt23__is_random_access_iterIT0_NSt15iterator_traitsIS7_E17iterator_categoryEE7__valueESt15_Deque_iteratorIT1_RSD_PSD_EE6__typeES7_S7_SG_ @2906
    _ZSt14__copy_move_a1ILb0EPiiEN9__gnu_cxx11__enable_ifIXsrSt23__is_random_access_iterIT0_NSt15iterator_traitsIS4_E17iterator_categoryEE7__valueESt15_Deque_iteratorIT1_RSA_PSA_EE6__typeES4_S4_SD_ @2907
    _ZSt14__copy_move_a1ILb0EPyyEN9__gnu_cxx11__enable_ifIXsrSt23__is_random_access_iterIT0_NSt15iterator_traitsIS4_E17iterator_categoryEE7__valueESt15_Deque_iteratorIT1_RSA_PSA_EE6__typeES4_S4_SD_ @2908
    _ZSt16__do_uninit_copyIN9__gnu_cxx17__normal_iteratorIPKN6Slic3r13ExtrusionPathESt6vectorIS3_SaIS3_EEEEPS3_ET0_T_SC_SB_ @2909
    _ZSt16__do_uninit_copyIN9__gnu_cxx17__normal_iteratorIPKN6Slic3r7PolygonESt6vectorIS3_SaIS3_EEEEPS3_ET0_T_SC_SB_ @2910
    _ZSt16__do_uninit_copyIN9__gnu_cxx17__normal_iteratorIPKN6Slic3r7SurfaceESt6vectorIS3_SaIS3_EEEEPS3_ET0_T_SC_SB_ @2911
    _ZSt16__do_uninit_copyIN9__gnu_cxx17__normal_iteratorIPKN6Slic3r8PolylineESt6vectorIS3_SaIS3_EEEEPS3_ET0_T_SC_SB_ @2912
    _ZSt16__do_uninit_copyIN9__gnu_cxx17__normal_iteratorIPKN6Slic3r9ExPolygonESt6vectorIS3_SaIS3_EEEEPS3_ET0_T_SC_SB_ @2913
    _ZSt16__do_uninit_copyIN9__gnu_cxx17__normal_iteratorIPKNSt7__cxx1112basic_stringIcSt11char_traitsIcESaIcEEESt6vectorIS7_SaIS7_EEEEPS7_ET0_T_SG_SF_ @2914
    _ZSt16__do_uninit_copyIN9__gnu_cxx17__normal_iteratorIPN6Slic3r13ExtrusionPathESt6vectorIS3_SaIS3_EEEES4_ET0_T_SA_S9_ @2915
    _ZSt16__do_uninit_copyIN9__gnu_cxx17__normal_iteratorIPN6Slic3r13ThickPolylineESt6vectorIS3_SaIS3_EEEEPNS2_8PolylineEET0_T_SC_SB_ @2916
    _ZSt16__do_uninit_copyIN9__gnu_cxx17__normal_iteratorIPN6Slic3r13ThickPolylineESt6vectorIS3_SaIS3_EEEES4_ET0_T_SA_S9_ @2917
    _ZSt16__do_uninit_copyIN9__gnu_cxx17__normal_iteratorIPN6Slic3r7PolygonESt6vectorIS3_SaIS3_EEEES4_ET0_T_SA_S9_ @2918
    _ZSt16__do_uninit_copyIN9__gnu_cxx17__normal_iteratorIPN6Slic3r9ExPolygonESt6vectorIS3_SaIS3_EEEES4_ET0_T_SA_S9_ @2919
    _ZSt16__do_uninit_copyINSt7__cxx1120regex_token_iteratorIN9__gnu_cxx17__normal_iteratorIPKcNS0_12basic_stringIcSt11char_traitsIcESaIcEEEEEcNS0_12regex_traitsIcEEEEPSA_ET0_T_SH_SG_ @2920
    _ZSt16__do_uninit_copyIPKN6Slic3r13ExtrusionPathEPS1_ET0_T_S6_S5_ @2921
    _ZSt16__do_uninit_copyIPKN6Slic3r13ThickPolylineEPS1_ET0_T_S6_S5_ @2922
    _ZSt16__do_uninit_copyIPKN6Slic3r7PolygonEPS1_ET0_T_S6_S5_ @2923
    _ZSt16__do_uninit_copyIPKN6Slic3r7SurfaceEPS1_ET0_T_S6_S5_ @2924
    _ZSt16__do_uninit_copyIPKN6Slic3r8PolylineEPS1_ET0_T_S6_S5_ @2925
    _ZSt16__do_uninit_copyIPKN6Slic3r8SLAPrint5LayerEPS2_ET0_T_S7_S6_ @2926
    _ZSt16__do_uninit_copyIPKN6Slic3r9ExPolygonEPS1_ET0_T_S6_S5_ @2927
    _ZSt16__do_uninit_copyIPKSt4pairIS0_IN5boost7polygon10point_dataIxEES4_ESt6vectorIS0_IiiESaIS7_EEEPSA_ET0_T_SF_SE_ @2928
    _ZSt16__insertion_sortIN9__gnu_cxx17__normal_iteratorIPN5boost7polygon6detail10site_eventIiEESt6vectorIS6_SaIS6_EEEENS0_5__ops15_Iter_comp_iterINS4_18voronoi_predicatesINS4_20voronoi_ctype_traitsIiEEE26event_comparison_predicateIS6_NS4_12circle_eventIdEEEEEEEvT_SN_T0_ @2929
    _ZSt16__insertion_sortIN9__gnu_cxx17__normal_iteratorIPN6Slic3r5PointESt6vectorIS3_SaIS3_EEEENS0_5__ops15_Iter_comp_iterIPFbS3_S3_EEEEvT_SE_T0_ @2930
    _ZSt16__insertion_sortIN9__gnu_cxx17__normal_iteratorIPN6Slic3r6PointfESt6vectorIS3_SaIS3_EEEENS0_5__ops15_Iter_comp_iterIPFbRS3_SB_EEEEvT_SF_T0_ @2931
    _ZSt16__insertion_sortIN9__gnu_cxx17__normal_iteratorIPPN3p2t5PointESt6vectorIS4_SaIS4_EEEENS0_5__ops15_Iter_comp_iterIPFbPKS3_SD_EEEEvT_SH_T0_ @2932
    _ZSt16__insertion_sortIN9__gnu_cxx17__normal_iteratorIPSt4pairIN5boost7polygon10point_dataIxEEiESt6vectorIS7_SaIS7_EEEENS0_5__ops15_Iter_comp_iterINS4_27polygon_arbitrary_formationIxE20less_half_edge_countEEEEvT_SJ_T0_ @2933
    _ZSt16__insertion_sortIN9__gnu_cxx17__normal_iteratorIPSt4pairIS2_IN5boost7polygon10point_dataIxEES6_ES2_IiiEESt6vectorIS9_SaIS9_EEEENS0_5__ops15_Iter_comp_iterINS4_20arbitrary_boolean_opIxE16less_vertex_dataIS9_EEEEEvT_SM_T0_ @2934
    _ZSt16__insertion_sortIN9__gnu_cxx17__normal_iteratorIPSt4pairIS2_IS2_IN5boost7polygon10point_dataIxEES6_EiEPNS4_27polygon_arbitrary_formationIxE21active_tail_arbitraryEESt6vectorISD_SaISD_EEEENS0_5__ops15_Iter_comp_iterINSA_19less_incoming_countEEEEvT_SN_T0_ @2935
    _ZSt16__insertion_sortIN9__gnu_cxx17__normal_iteratorIPySt6vectorIySaIyEEEENS0_5__ops15_Iter_comp_iterIN6Slic3r10_area_compEEEEvT_SC_T0_ @2936
    _ZSt16__insertion_sortIPlN9__gnu_cxx5__ops15_Iter_comp_iterIN13TPPLPartition12VertexSorterEEEEvT_S7_T0_ @2937
    _ZSt16__introsort_loopIN9__gnu_cxx17__normal_iteratorIPN10ClipperLib12LocalMinimumESt6vectorIS3_SaIS3_EEEExNS0_5__ops15_Iter_comp_iterINS2_12LocMinSorterEEEEvT_SD_T0_T1_ @2938
    _ZSt16__introsort_loopIN9__gnu_cxx17__normal_iteratorIPN5boost7polygon10point_dataIxEESt6vectorIS5_SaIS5_EEEExNS0_5__ops15_Iter_comp_iterINS3_17line_intersectionIxE21less_point_down_slopeEEEEvT_SH_T0_T1_ @2939
    _ZSt16__introsort_loopIN9__gnu_cxx17__normal_iteratorIPN5boost7polygon6detail10site_eventIiEESt6vectorIS6_SaIS6_EEEExNS0_5__ops15_Iter_comp_iterINS4_18voronoi_predicatesINS4_20voronoi_ctype_traitsIiEEE26event_comparison_predicateIS6_NS4_12circle_eventIdEEEEEEEvT_SN_T0_T1_ @2940
    _ZSt16__introsort_loopIN9__gnu_cxx17__normal_iteratorIPN6Slic3r5PointESt6vectorIS3_SaIS3_EEEExNS0_5__ops15_Iter_comp_iterIPFbS3_S3_EEEEvT_SE_T0_T1_ @2941
    _ZSt16__introsort_loopIN9__gnu_cxx17__normal_iteratorIPPN3p2t5PointESt6vectorIS4_SaIS4_EEEExNS0_5__ops15_Iter_comp_iterIPFbPKS3_SD_EEEEvT_SH_T0_T1_ @2942
    _ZSt16__introsort_loopIN9__gnu_cxx17__normal_iteratorIPSt4pairIN5boost7polygon10point_dataIxEEiESt6vectorIS7_SaIS7_EEEExNS0_5__ops15_Iter_comp_iterINS4_27polygon_arbitrary_formationIxE20less_half_edge_countEEEEvT_SJ_T0_T1_ @2943
    _ZSt16__introsort_loopIN9__gnu_cxx17__normal_iteratorIPSt4pairIS2_IN5boost7polygon10point_dataIxEES6_ES2_IiiEESt6vectorIS9_SaIS9_EEEExNS0_5__ops15_Iter_comp_iterINS4_20arbitrary_boolean_opIxE16less_vertex_dataIS9_EEEEEvT_SM_T0_T1_ @2944
    _ZSt16__introsort_loopIN9__gnu_cxx17__normal_iteratorIPSt4pairIS2_IS2_IN5boost7polygon10point_dataIxEES6_EiEPNS4_27polygon_arbitrary_formationIxE21active_tail_arbitraryEESt6vectorISD_SaISD_EEEExNS0_5__ops15_Iter_comp_iterINSA_19less_incoming_countEEEEvT_SN_T0_T1_ @2945
    _ZSt16__introsort_loopIN9__gnu_cxx17__normal_iteratorIPySt6vectorIySaIyEEEExNS0_5__ops15_Iter_comp_iterIN6Slic3r10_area_compEEEEvT_SC_T0_T1_ @2946
    _ZSt16__introsort_loopIPlxN9__gnu_cxx5__ops15_Iter_comp_iterIN13TPPLPartition12VertexSorterEEEEvT_S7_T0_T1_ @2947
    _ZSt18__do_uninit_fill_nIPN6Slic3r8PolylineEyS1_ET_S3_T0_RKT1_ @2948
    _ZSt19__throw_regex_errorNSt15regex_constants10error_typeEPKc @2949
    _ZSt22__move_median_to_firstIN9__gnu_cxx17__normal_iteratorIPSt4pairIN5boost7polygon10point_dataIxEEiESt6vectorIS7_SaIS7_EEEENS0_5__ops15_Iter_comp_iterINS4_27polygon_arbitrary_formationIxE20less_half_edge_countEEEEvT_SJ_SJ_SJ_T0_ @2950
    _ZSt25__unguarded_linear_insertIN9__gnu_cxx17__normal_iteratorIPN5boost7polygon6detail10site_eventIiEESt6vectorIS6_SaIS6_EEEENS0_5__ops14_Val_comp_iterINS4_18voronoi_predicatesINS4_20voronoi_ctype_traitsIiEEE26event_comparison_predicateIS6_NS4_12circle_eventIdEEEEEEEvT_T0_ @2951
    _ZSt25__unguarded_linear_insertIN9__gnu_cxx17__normal_iteratorIPSt4pairIN5boost7polygon10point_dataIxEEiESt6vectorIS7_SaIS7_EEEENS0_5__ops14_Val_comp_iterINS4_27polygon_arbitrary_formationIxE20less_half_edge_countEEEEvT_T0_ @2952
    _ZSt25__unguarded_linear_insertIN9__gnu_cxx17__normal_iteratorIPSt4pairIS2_IN5boost7polygon10point_dataIxEES6_ES2_IiiEESt6vectorIS9_SaIS9_EEEENS0_5__ops14_Val_comp_iterINS4_20arbitrary_boolean_opIxE16less_vertex_dataIS9_EEEEEvT_T0_ @2953
    _ZSt4swapI8stl_fileENSt9enable_ifIXsrSt6__and_IJSt6__not_ISt15__is_tuple_likeIT_EESt21is_move_constructibleIS5_ESt18is_move_assignableIS5_EEE5valueEvE4typeERS5_SF_ @2954
    _ZSt4swapIN6Slic3r12TriangleMeshEENSt9enable_ifIXsrSt6__and_IJSt6__not_ISt15__is_tuple_likeIT_EESt21is_move_constructibleIS6_ESt18is_move_assignableIS6_EEE5valueEvE4typeERS6_SG_ @2955
    _ZSt4swapIN6Slic3r20TransformationMatrixEENSt9enable_ifIXsrSt6__and_IJSt6__not_ISt15__is_tuple_likeIT_EESt21is_move_constructibleIS6_ESt18is_move_assignableIS6_EEE5valueEvE4typeERS6_SG_ @2956
    _ZSt9iter_swapIN9__gnu_cxx17__normal_iteratorIPN5boost7polygon13scanline_baseIxE16vertex_half_edgeESt6vectorIS6_SaIS6_EEEESB_EvT_T0_ @2957
    _ZSt9iter_swapIN9__gnu_cxx17__normal_iteratorIPN5boost7polygon6detail10site_eventIiEESt6vectorIS6_SaIS6_EEEESB_EvT_T0_ @2958
    _ZSt9iter_swapIN9__gnu_cxx17__normal_iteratorIPSt4pairIS2_IN5boost7polygon10point_dataIxEES6_ES2_IiiEESt6vectorIS9_SaIS9_EEEESE_EvT_T0_ @2959
    _ZSt9iter_swapIN9__gnu_cxx17__normal_iteratorIPSt4pairIS2_IN5boost7polygon10point_dataIxEES6_EiESt6vectorIS8_SaIS8_EEEESD_EvT_T0_ @2960
    _ZSt9iter_swapIN9__gnu_cxx17__normal_iteratorIPSt4pairIS2_IS2_IN5boost7polygon10point_dataIxEES6_EiEPNS4_27polygon_arbitrary_formationIxE21active_tail_arbitraryEESt6vectorISD_SaISD_EEEESI_EvT_T0_ @2961
    _ZSteqIcSt11char_traitsIcESaIcEEbRKNSt7__cxx1112basic_stringIT_T0_T1_EEPKS5_ @2962
    _ZStltISt4pairIN5boost7polygon10point_dataIxEES4_EiEbRKS0_IT_T0_ESA_ @2963
    _ZTCN5boost6nowide14basic_ifstreamIcSt11char_traitsIcEEE0_NS0_6detail12fstream_implIcS3_NS5_12StreamTypeInELi1EEE @2964 DATA
    _ZTCN5boost6nowide14basic_ifstreamIcSt11char_traitsIcEEE0_Si @2965 DATA
    _ZTCN5boost6nowide14basic_ofstreamIcSt11char_traitsIcEEE0_NS0_6detail12fstream_implIcS3_NS5_13StreamTypeOutELi1EEE @2966 DATA
    _ZTCN5boost6nowide14basic_ofstreamIcSt11char_traitsIcEEE0_So @2967 DATA
    _ZTCN5boost6nowide6detail18winconsole_istreamE0_Si @2968 DATA
    _ZTCN5boost6nowide6detail18winconsole_ostreamE0_So @2969 DATA
    _ZTCN6Slic3r11PrintConfigE0_NS_11GCodeConfigE @2970 DATA
    _ZTCN6Slic3r11PrintConfigE2264_NS_15PrintConfigBaseE @2971 DATA
    _ZTCN6Slic3r11PrintConfigE2264_NS_17StaticPrintConfigE @2972 DATA
    _ZTCN6Slic3r11PrintConfigE2272_NS_12StaticConfigE @2973 DATA
    _ZTCN6Slic3r14SLAPrintConfigE248_NS_15PrintConfigBaseE @2974 DATA
    _ZTCN6Slic3r14SLAPrintConfigE248_NS_17StaticPrintConfigE @2975 DATA
    _ZTCN6Slic3r14SLAPrintConfigE256_NS_12StaticConfigE @2976 DATA
    _ZTCN6Slic3r17PrintObjectConfigE584_NS_15PrintConfigBaseE @2977 DATA
    _ZTCN6Slic3r17PrintObjectConfigE584_NS_17StaticPrintConfigE @2978 DATA
    _ZTCN6Slic3r17PrintObjectConfigE592_NS_12StaticConfigE @2979 DATA
    _ZTCN6Slic3r17PrintRegionConfigE672_NS_15PrintConfigBaseE @2980 DATA
    _ZTCN6Slic3r17PrintRegionConfigE672_NS_17StaticPrintConfigE @2981 DATA
    _ZTCN6Slic3r17PrintRegionConfigE680_NS_12StaticConfigE @2982 DATA
    _ZTCN6Slic3r18DynamicPrintConfigE0_NS_15PrintConfigBaseE @2983 DATA
    _ZTCN6Slic3r18DynamicPrintConfigE8_NS_13DynamicConfigE @2984 DATA
    _ZTI10NullStream @2985 DATA
    _ZTI11BSplineBaseIdE @2986 DATA
    _ZTI7BSplineIdE @2987 DATA
    _ZTIN10ClipperLib11ClipperBaseE @2988 DATA
    _ZTIN10ClipperLib16clipperExceptionE @2989 DATA
    _ZTIN10ClipperLib7ClipperE @2990 DATA
    _ZTIN10ClipperLib8PolyNodeE @2991 DATA
    _ZTIN10ClipperLib8PolyTreeE @2992 DATA
    _ZTIN5boost10error_infoINS_27tag_original_exception_typeEPKSt9type_infoEE @2993 DATA
    _ZTIN5boost10filesystem16filesystem_errorE @2994 DATA
    _ZTIN5boost10filesystem6detail20windows_file_codecvtE @2995 DATA
    _ZTIN5boost10lock_errorE @2996 DATA
    _ZTIN5boost10wrapexceptINS_10lock_errorEEE @2997 DATA
    _ZTIN5boost10wrapexceptINS_13property_tree10ini_parser16ini_parser_errorEEE @2998 DATA
    _ZTIN5boost10wrapexceptINS_16bad_lexical_castEEE @2999 DATA
    _ZTIN5boost10wrapexceptINS_17bad_function_callEEE @3000 DATA
    _ZTIN5boost10wrapexceptINS_21thread_resource_errorEEE @3001 DATA
    _ZTIN5boost10wrapexceptISt9bad_allocEE @3002 DATA
    _ZTIN5boost13property_tree10ini_parser16ini_parser_errorE @3003 DATA
    _ZTIN5boost13property_tree11ptree_errorE @3004 DATA
    _ZTIN5boost13property_tree17file_parser_errorE @3005 DATA
    _ZTIN5boost16bad_lexical_castE @3006 DATA
    _ZTIN5boost16exception_detail10bad_alloc_E @3007 DATA
    _ZTIN5boost16exception_detail10clone_baseE @3008 DATA
    _ZTIN5boost16exception_detail10clone_implINS0_10bad_alloc_EEE @3009 DATA
    _ZTIN5boost16exception_detail10clone_implINS0_14bad_exception_EEE @3010 DATA
    _ZTIN5boost16exception_detail14bad_exception_E @3011 DATA
    _ZTIN5boost16exception_detail15error_info_baseE @3012 DATA
    _ZTIN5boost16exception_detail20error_info_containerE @3013 DATA
    _ZTIN5boost16exception_detail25error_info_container_implE @3014 DATA
    _ZTIN5boost16thread_exceptionE @3015 DATA
    _ZTIN5boost17bad_function_callE @3016 DATA
    _ZTIN5boost18thread_interruptedE @3017 DATA
    _ZTIN5boost21thread_resource_errorE @3018 DATA
    _ZTIN5boost3_bi6bind_tINS0_11unspecifiedENS_4_mfi2mfIMN6Slic3r15SupportMaterialEFviNS5_16toolpaths_paramsEEvS6_JiS7_EEENS0_4listIJNS0_5valueIPS6_EENS_3argILi1EEENSC_IS7_EEEEEEE @3019 DATA
    _ZTIN5boost3_bi6bind_tINS0_11unspecifiedENS_4_mfi2mfIMN6Slic3r17SurfaceCollectionEFvvEvS6_JEEENS0_4listIJNS_3argILi1EEEEEEEE @3020 DATA
    _ZTIN5boost3_bi6bind_tINS0_11unspecifiedENS_4_mfi2mfIMN6Slic3r18TriangleMeshSlicerILNS5_4AxisE0EEEKFvyPSt6vectorIS9_INS5_16IntersectionLineESaISA_EESaISC_EEPNS_5mutexERKS9_IfSaIfEEEvS8_JySF_SH_SL_EEENS0_4listIJNS0_5valueIPKS8_EENS_3argILi1EEENSQ_ISF_EENSQ_ISH_EENSQ_ISJ_EEEEEEE @3021 DATA
    _ZTIN5boost3_bi6bind_tINS0_11unspecifiedENS_4_mfi2mfIMN6Slic3r18TriangleMeshSlicerILNS5_4AxisE0EEEKFvyPSt6vectorIS9_INS5_16IntersectionLineESaISA_EESaISC_EEPS9_IS9_INS5_7PolygonESaISG_EESaISI_EEEvS8_JySF_SL_EEENS0_4listIJNS0_5valueIPKS8_EENS_3argILi1EEENSQ_ISF_EENSQ_ISL_EEEEEEE @3022 DATA
    _ZTIN5boost3_bi6bind_tINS0_11unspecifiedENS_4_mfi2mfIMN6Slic3r18TriangleMeshSlicerILNS5_4AxisE1EEEKFvyPSt6vectorIS9_INS5_16IntersectionLineESaISA_EESaISC_EEPNS_5mutexERKS9_IfSaIfEEEvS8_JySF_SH_SL_EEENS0_4listIJNS0_5valueIPKS8_EENS_3argILi1EEENSQ_ISF_EENSQ_ISH_EENSQ_ISJ_EEEEEEE @3023 DATA
    _ZTIN5boost3_bi6bind_tINS0_11unspecifiedENS_4_mfi2mfIMN6Slic3r18TriangleMeshSlicerILNS5_4AxisE1EEEKFvyPSt6vectorIS9_INS5_16IntersectionLineESaISA_EESaISC_EEPS9_IS9_INS5_7PolygonESaISG_EESaISI_EEEvS8_JySF_SL_EEENS0_4listIJNS0_5valueIPKS8_EENS_3argILi1EEENSQ_ISF_EENSQ_ISL_EEEEEEE @3024 DATA
    _ZTIN5boost3_bi6bind_tINS0_11unspecifiedENS_4_mfi2mfIMN6Slic3r18TriangleMeshSlicerILNS5_4AxisE2EEEKFvyPSt6vectorIS9_INS5_16IntersectionLineESaISA_EESaISC_EEPNS_5mutexERKS9_IfSaIfEEEvS8_JySF_SH_SL_EEENS0_4listIJNS0_5valueIPKS8_EENS_3argILi1EEENSQ_ISF_EENSQ_ISH_EENSQ_ISJ_EEEEEEE @3025 DATA
    _ZTIN5boost3_bi6bind_tINS0_11unspecifiedENS_4_mfi2mfIMN6Slic3r18TriangleMeshSlicerILNS5_4AxisE2EEEKFvyPSt6vectorIS9_INS5_16IntersectionLineESaISA_EESaISC_EEPS9_IS9_INS5_7PolygonESaISG_EESaISI_EEEvS8_JySF_SL_EEENS0_4listIJNS0_5valueIPKS8_EENS_3argILi1EEENSQ_ISF_EENSQ_ISL_EEEEEEE @3026 DATA
    _ZTIN5boost3_bi6bind_tINS0_11unspecifiedENS_4_mfi2mfIMN6Slic3r5LayerEFvvEvS6_JEEENS0_4listIJNS_3argILi1EEEEEEEE @3027 DATA
    _ZTIN5boost3_bi6bind_tINS0_11unspecifiedENS_4_mfi2mfIMN6Slic3r8SLAPrintEFvyPKNS5_4FillEEvS6_JyS9_EEENS0_4listIJNS0_5valueIPS6_EENS_3argILi1EEENSE_IPS7_EEEEEEE @3028 DATA
    _ZTIN5boost6detail11thread_dataINS_3_bi6bind_tIvPFvPSt5queueIPN6Slic3r17SurfaceCollectionESt5dequeIS7_SaIS7_EEEPNS_5mutexENS_8functionIFvS7_EEEENS2_4listIJNS2_5valueISC_EENSL_ISE_EENSL_ISH_EEEEEEEEE @3029 DATA
    _ZTIN5boost6detail11thread_dataINS_3_bi6bind_tIvPFvPSt5queueIPN6Slic3r5LayerESt5dequeIS7_SaIS7_EEEPNS_5mutexENS_8functionIFvS7_EEEENS2_4listIJNS2_5valueISC_EENSL_ISE_EENSL_ISH_EEEEEEEEE @3030 DATA
    _ZTIN5boost6detail11thread_dataINS_3_bi6bind_tIvPFvPSt5queueIiSt5dequeIiSaIiEEEPNS_5mutexENS_8functionIFviEEEENS2_4listIJNS2_5valueIS9_EENSI_ISB_EENSI_ISE_EEEEEEEEE @3031 DATA
    _ZTIN5boost6detail11thread_dataINS_3_bi6bind_tIvPFvPSt5queueIySt5dequeIySaIyEEEPNS_5mutexENS_8functionIFvyEEEENS2_4listIJNS2_5valueIS9_EENSI_ISB_EENSI_ISE_EEEEEEEEE @3032 DATA
    _ZTIN5boost6detail15sp_counted_baseE @3033 DATA
    _ZTIN5boost6detail16basic_pointerbufIcSt15basic_streambufIcSt11char_traitsIcEEEE @3034 DATA
    _ZTIN5boost6detail16thread_data_baseE @3035 DATA
    _ZTIN5boost6detail17sp_counted_impl_pINS_16exception_detail10clone_implINS2_10bad_alloc_EEEEE @3036 DATA
    _ZTIN5boost6detail17sp_counted_impl_pINS_16exception_detail10clone_implINS2_14bad_exception_EEEEE @3037 DATA
    _ZTIN5boost6detail17sp_counted_impl_pINS_16exception_detail15error_info_baseEEE @3038 DATA
    _ZTIN5boost6detail5lcast17basic_unlockedbufISt15basic_streambufIcSt11char_traitsIcEEcEE @3039 DATA
    _ZTIN5boost6locale4conv16conversion_errorE @3040 DATA
    _ZTIN5boost6nowide13basic_filebufIcSt11char_traitsIcEEE @3041 DATA
    _ZTIN5boost6nowide14basic_ifstreamIcSt11char_traitsIcEEE @3042 DATA
    _ZTIN5boost6nowide14basic_ofstreamIcSt11char_traitsIcEEE @3043 DATA
    _ZTIN5boost6nowide6detail10buf_holderINS0_13basic_filebufIcSt11char_traitsIcEEEEE @3044 DATA
    _ZTIN5boost6nowide6detail12fstream_implIcSt11char_traitsIcENS1_12StreamTypeInELi1EEE @3045 DATA
    _ZTIN5boost6nowide6detail12fstream_implIcSt11char_traitsIcENS1_13StreamTypeOutELi1EEE @3046 DATA
    _ZTIN5boost6nowide6detail18winconsole_istreamE @3047 DATA
    _ZTIN5boost6nowide6detail18winconsole_ostreamE @3048 DATA
    _ZTIN5boost6nowide6detail20console_input_bufferE @3049 DATA
    _ZTIN5boost6nowide6detail21console_output_bufferE @3050 DATA
    _ZTIN5boost6nowide6detail25console_input_buffer_baseE @3051 DATA
    _ZTIN5boost6nowide6detail26console_output_buffer_baseE @3052 DATA
    _ZTIN5boost6system12system_errorE @3053 DATA
    _ZTIN5boost6system14error_categoryE @3054 DATA
    _ZTIN5boost6system6detail12std_categoryE @3055 DATA
    _ZTIN5boost6system6detail21system_error_categoryE @3056 DATA
    _ZTIN5boost6system6detail22generic_error_categoryE @3057 DATA
    _ZTIN5boost6system6detail22interop_error_categoryE @3058 DATA
    _ZTIN5boost9algorithm6detail13token_finderFINS1_10is_any_ofFIcEEEE @3059 DATA
    _ZTIN5boost9exceptionE @3060 DATA
    _ZTIN6Slic3r10ConfigBaseE @3061 DATA
    _ZTIN6Slic3r10FillGyroidE @3062 DATA
    _ZTIN6Slic3r10MultiPointE @3063 DATA
    _ZTIN6Slic3r11FileIOErrorE @3064 DATA
    _ZTIN6Slic3r11GCodeConfigE @3065 DATA
    _ZTIN6Slic3r11PrintConfigE @3066 DATA
    _ZTIN6Slic3r12ConfigOptionE @3067 DATA
    _ZTIN6Slic3r12StaticConfigE @3068 DATA
    _ZTIN6Slic3r12SupportLayerE @3069 DATA
    _ZTIN6Slic3r13DynamicConfigE @3070 DATA
    _ZTIN6Slic3r13ExtrusionLoopE @3071 DATA
    _ZTIN6Slic3r13ExtrusionPathE @3072 DATA
    _ZTIN6Slic3r13FillHoneycombE @3073 DATA
    _ZTIN6Slic3r13FillPlanePathE @3074 DATA
    _ZTIN6Slic3r13FillTrianglesE @3075 DATA
    _ZTIN6Slic3r13ThickPolylineE @3076 DATA
    _ZTIN6Slic3r14FillConcentricE @3077 DATA
    _ZTIN6Slic3r14SLAPrintConfigE @3078 DATA
    _ZTIN6Slic3r15ConfigOptionIntE @3079 DATA
    _ZTIN6Slic3r15ExtrusionEntityE @3080 DATA
    _ZTIN6Slic3r15Fill3DHoneycombE @3081 DATA
    _ZTIN6Slic3r15FillRectilinearE @3082 DATA
    _ZTIN6Slic3r15PrintConfigBaseE @3083 DATA
    _ZTIN6Slic3r16ConfigOptionBoolE @3084 DATA
    _ZTIN6Slic3r16ConfigOptionEnumINS_11GCodeFlavorEEE @3085 DATA
    _ZTIN6Slic3r16ConfigOptionEnumINS_12SeamPositionEEE @3086 DATA
    _ZTIN6Slic3r16ConfigOptionEnumINS_13InfillPatternEEE @3087 DATA
    _ZTIN6Slic3r16ConfigOptionEnumINS_22SupportMaterialPatternEEE @3088 DATA
    _ZTIN6Slic3r16ConfigOptionEnumINS_8HostTypeEEE @3089 DATA
    _ZTIN6Slic3r16ConfigOptionIntsE @3090 DATA
    _ZTIN6Slic3r16FillHilbertCurveE @3091 DATA
    _ZTIN6Slic3r17ConfigOptionBoolsE @3092 DATA
    _ZTIN6Slic3r17ConfigOptionFloatE @3093 DATA
    _ZTIN6Slic3r17ConfigOptionPointE @3094 DATA
    _ZTIN6Slic3r17CriticalExceptionE @3095 DATA
    _ZTIN6Slic3r17PrintObjectConfigE @3096 DATA
    _ZTIN6Slic3r17PrintRegionConfigE @3097 DATA
    _ZTIN6Slic3r17StaticPrintConfigE @3098 DATA
    _ZTIN6Slic3r18ConfigOptionFloatsE @3099 DATA
    _ZTIN6Slic3r18ConfigOptionPoint3E @3100 DATA
    _ZTIN6Slic3r18ConfigOptionPointsE @3101 DATA
    _ZTIN6Slic3r18ConfigOptionSingleINS_11GCodeFlavorEEE @3102 DATA
    _ZTIN6Slic3r18ConfigOptionSingleINS_12SeamPositionEEE @3103 DATA
    _ZTIN6Slic3r18ConfigOptionSingleINS_13InfillPatternEEE @3104 DATA
    _ZTIN6Slic3r18ConfigOptionSingleINS_22SupportMaterialPatternEEE @3105 DATA
    _ZTIN6Slic3r18ConfigOptionSingleINS_6PointfEEE @3106 DATA
    _ZTIN6Slic3r18ConfigOptionSingleINS_7Pointf3EEE @3107 DATA
    _ZTIN6Slic3r18ConfigOptionSingleINS_8HostTypeEEE @3108 DATA
    _ZTIN6Slic3r18ConfigOptionSingleINSt7__cxx1112basic_stringIcSt11char_traitsIcESaIcEEEEE @3109 DATA
    _ZTIN6Slic3r18ConfigOptionSingleIbEE @3110 DATA
    _ZTIN6Slic3r18ConfigOptionSingleIdEE @3111 DATA
    _ZTIN6Slic3r18ConfigOptionSingleIiEE @3112 DATA
    _ZTIN6Slic3r18ConfigOptionStringE @3113 DATA
    _ZTIN6Slic3r18ConfigOptionVectorINS_6PointfEEE @3114 DATA
    _ZTIN6Slic3r18ConfigOptionVectorINSt7__cxx1112basic_stringIcSt11char_traitsIcESaIcEEEEE @3115 DATA
    _ZTIN6Slic3r18ConfigOptionVectorIbEE @3116 DATA
    _ZTIN6Slic3r18ConfigOptionVectorIdEE @3117 DATA
    _ZTIN6Slic3r18ConfigOptionVectorIiEE @3118 DATA
    _ZTIN6Slic3r18DynamicPrintConfigE @3119 DATA
    _ZTIN6Slic3r18FillOctagramSpiralE @3120 DATA
    _ZTIN6Slic3r19ConfigOptionPercentE @3121 DATA
    _ZTIN6Slic3r19ConfigOptionStringsE @3122 DATA
    _ZTIN6Slic3r21ConfigOptionExceptionE @3123 DATA
    _ZTIN6Slic3r21FillArchimedeanChordsE @3124 DATA
    _ZTIN6Slic3r21InvalidPrintExceptionE @3125 DATA
    _ZTIN6Slic3r22BadOptionTypeExceptionE @3126 DATA
    _ZTIN6Slic3r22ConfigOptionVectorBaseE @3127 DATA
    _ZTIN6Slic3r22FillAlignedRectilinearE @3128 DATA
    _ZTIN6Slic3r22InvalidOptionExceptionE @3129 DATA
    _ZTIN6Slic3r22UnknownOptionExceptionE @3130 DATA
    _ZTIN6Slic3r23ConfigOptionEnumGenericE @3131 DATA
    _ZTIN6Slic3r25ExtrusionEntityCollectionE @3132 DATA
    _ZTIN6Slic3r26ConfigOptionFloatOrPercentE @3133 DATA
    _ZTIN6Slic3r4FillE @3134 DATA
    _ZTIN6Slic3r5LayerE @3135 DATA
    _ZTIN6Slic3r7IOErrorE @3136 DATA
    _ZTIN6Slic3r7PolygonE @3137 DATA
    _ZTIN6Slic3r8ExtruderE @3138 DATA
    _ZTIN6Slic3r8FillGridE @3139 DATA
    _ZTIN6Slic3r8PolylineE @3140 DATA
    _ZTIN6Slic3r9ExceptionE @3141 DATA
    _ZTIN6Slic3r9FillCubicE @3142 DATA
    _ZTIN6Slic3r9FillStarsE @3143 DATA
    _ZTIN7tinyobj14MaterialReaderE @3144 DATA
    _ZTIN7tinyobj18MaterialFileReaderE @3145 DATA
    _ZTIN7tinyobj20MaterialStreamReaderE @3146 DATA
    _ZTINSt10filesystem7__cxx1116filesystem_errorE @3147 DATA
    _ZTINSt10filesystem7__cxx114path8_CodecvtIwEE @3148 DATA
    _ZTINSt3_V214error_categoryE @3149 DATA
    _ZTINSt6locale5facetE @3150 DATA
    _ZTINSt6thread11_State_implINS_8_InvokerISt5tupleIJMN4Marc6LoggerEFvvEPS4_EEEEEE @3151 DATA
    _ZTINSt6thread6_StateE @3152 DATA
    _ZTINSt7__cxx1112basic_stringIcSt11char_traitsIcESaIcEEE @3153 DATA
    _ZTINSt8__detail11_AnyMatcherINSt7__cxx1112regex_traitsIcEELb0ELb0ELb0EEE @3154 DATA
    _ZTINSt8__detail11_AnyMatcherINSt7__cxx1112regex_traitsIcEELb0ELb0ELb1EEE @3155 DATA
    _ZTINSt8__detail11_AnyMatcherINSt7__cxx1112regex_traitsIcEELb0ELb1ELb0EEE @3156 DATA
    _ZTINSt8__detail11_AnyMatcherINSt7__cxx1112regex_traitsIcEELb0ELb1ELb1EEE @3157 DATA
    _ZTINSt8__detail11_AnyMatcherINSt7__cxx1112regex_traitsIcEELb1ELb0ELb0EEE @3158 DATA
    _ZTINSt8__detail11_AnyMatcherINSt7__cxx1112regex_traitsIcEELb1ELb0ELb1EEE @3159 DATA
    _ZTINSt8__detail11_AnyMatcherINSt7__cxx1112regex_traitsIcEELb1ELb1ELb0EEE @3160 DATA
    _ZTINSt8__detail11_AnyMatcherINSt7__cxx1112regex_traitsIcEELb1ELb1ELb1EEE @3161 DATA
    _ZTINSt8__detail12_CharMatcherINSt7__cxx1112regex_traitsIcEELb0ELb0EEE @3162 DATA
    _ZTINSt8__detail12_CharMatcherINSt7__cxx1112regex_traitsIcEELb0ELb1EEE @3163 DATA
    _ZTINSt8__detail12_CharMatcherINSt7__cxx1112regex_traitsIcEELb1ELb0EEE @3164 DATA
    _ZTINSt8__detail12_CharMatcherINSt7__cxx1112regex_traitsIcEELb1ELb1EEE @3165 DATA
    _ZTINSt8__detail15_BracketMatcherINSt7__cxx1112regex_traitsIcEELb0ELb0EEE @3166 DATA
    _ZTINSt8__detail15_BracketMatcherINSt7__cxx1112regex_traitsIcEELb0ELb1EEE @3167 DATA
    _ZTINSt8__detail15_BracketMatcherINSt7__cxx1112regex_traitsIcEELb1ELb0EEE @3168 DATA
    _ZTINSt8__detail15_BracketMatcherINSt7__cxx1112regex_traitsIcEELb1ELb1EEE @3169 DATA
    _ZTINSt8ios_base7failureB5cxx11E @3170 DATA
    _ZTISt10ctype_base @3171 DATA
    _ZTISt11_Mutex_baseILN9__gnu_cxx12_Lock_policyE2EE @3172 DATA
    _ZTISt11logic_error @3173 DATA
    _ZTISt11regex_error @3174 DATA
    _ZTISt12codecvt_base @3175 DATA
    _ZTISt12out_of_range @3176 DATA
    _ZTISt12system_error @3177 DATA
    _ZTISt13bad_exception @3178 DATA
    _ZTISt13runtime_error @3179 DATA
    _ZTISt16_Sp_counted_baseILN9__gnu_cxx12_Lock_policyE2EE @3180 DATA
    _ZTISt18codecvt_utf8_utf16IwLm1114111ELSt12codecvt_mode0EE @3181 DATA
    _ZTISt19_Sp_make_shared_tag @3182 DATA
    _ZTISt23_Sp_counted_ptr_inplaceINSt8__detail4_NFAINSt7__cxx1112regex_traitsIcEEEESaIvELN9__gnu_cxx12_Lock_policyE2EE @3183 DATA
    _ZTISt23__codecvt_abstract_baseIwc9_MbstatetE @3184 DATA
    _ZTISt25__codecvt_utf8_utf16_baseIwE @3185 DATA
    _ZTISt5ctypeIcE @3186 DATA
    _ZTISt7codecvtIwc9_MbstatetE @3187 DATA
    _ZTISt8bad_cast @3188 DATA
    _ZTISt9bad_alloc @3189 DATA
    _ZTISt9exception @3190 DATA
    _ZTS10NullStream @3191 DATA
    _ZTS11BSplineBaseIdE @3192 DATA
    _ZTS7BSplineIdE @3193 DATA
    _ZTSN10ClipperLib11ClipperBaseE @3194 DATA
    _ZTSN10ClipperLib16clipperExceptionE @3195 DATA
    _ZTSN10ClipperLib7ClipperE @3196 DATA
    _ZTSN10ClipperLib8PolyNodeE @3197 DATA
    _ZTSN10ClipperLib8PolyTreeE @3198 DATA
    _ZTSN5boost10error_infoINS_27tag_original_exception_typeEPKSt9type_infoEE @3199 DATA
    _ZTSN5boost10filesystem16filesystem_errorE @3200 DATA
    _ZTSN5boost10filesystem6detail20windows_file_codecvtE @3201 DATA
    _ZTSN5boost10lock_errorE @3202 DATA
    _ZTSN5boost10wrapexceptINS_10lock_errorEEE @3203 DATA
    _ZTSN5boost10wrapexceptINS_13property_tree10ini_parser16ini_parser_errorEEE @3204 DATA
    _ZTSN5boost10wrapexceptINS_16bad_lexical_castEEE @3205 DATA
    _ZTSN5boost10wrapexceptINS_17bad_function_callEEE @3206 DATA
    _ZTSN5boost10wrapexceptINS_21thread_resource_errorEEE @3207 DATA
    _ZTSN5boost10wrapexceptISt9bad_allocEE @3208 DATA
    _ZTSN5boost13property_tree10ini_parser16ini_parser_errorE @3209 DATA
    _ZTSN5boost13property_tree11ptree_errorE @3210 DATA
    _ZTSN5boost13property_tree17file_parser_errorE @3211 DATA
    _ZTSN5boost16bad_lexical_castE @3212 DATA
    _ZTSN5boost16exception_detail10bad_alloc_E @3213 DATA
    _ZTSN5boost16exception_detail10clone_baseE @3214 DATA
    _ZTSN5boost16exception_detail10clone_implINS0_10bad_alloc_EEE @3215 DATA
    _ZTSN5boost16exception_detail10clone_implINS0_14bad_exception_EEE @3216 DATA
    _ZTSN5boost16exception_detail14bad_exception_E @3217 DATA
    _ZTSN5boost16exception_detail15error_info_baseE @3218 DATA
    _ZTSN5boost16exception_detail20error_info_containerE @3219 DATA
    _ZTSN5boost16exception_detail25error_info_container_implE @3220 DATA
    _ZTSN5boost16thread_exceptionE @3221 DATA
    _ZTSN5boost17bad_function_callE @3222 DATA
    _ZTSN5boost18thread_interruptedE @3223 DATA
    _ZTSN5boost21thread_resource_errorE @3224 DATA
    _ZTSN5boost3_bi6bind_tINS0_11unspecifiedENS_4_mfi2mfIMN6Slic3r15SupportMaterialEFviNS5_16toolpaths_paramsEEvS6_JiS7_EEENS0_4listIJNS0_5valueIPS6_EENS_3argILi1EEENSC_IS7_EEEEEEE @3225 DATA
    _ZTSN5boost3_bi6bind_tINS0_11unspecifiedENS_4_mfi2mfIMN6Slic3r17SurfaceCollectionEFvvEvS6_JEEENS0_4listIJNS_3argILi1EEEEEEEE @3226 DATA
    _ZTSN5boost3_bi6bind_tINS0_11unspecifiedENS_4_mfi2mfIMN6Slic3r18TriangleMeshSlicerILNS5_4AxisE0EEEKFvyPSt6vectorIS9_INS5_16IntersectionLineESaISA_EESaISC_EEPNS_5mutexERKS9_IfSaIfEEEvS8_JySF_SH_SL_EEENS0_4listIJNS0_5valueIPKS8_EENS_3argILi1EEENSQ_ISF_EENSQ_ISH_EENSQ_ISJ_EEEEEEE @3227 DATA
    _ZTSN5boost3_bi6bind_tINS0_11unspecifiedENS_4_mfi2mfIMN6Slic3r18TriangleMeshSlicerILNS5_4AxisE0EEEKFvyPSt6vectorIS9_INS5_16IntersectionLineESaISA_EESaISC_EEPS9_IS9_INS5_7PolygonESaISG_EESaISI_EEEvS8_JySF_SL_EEENS0_4listIJNS0_5valueIPKS8_EENS_3argILi1EEENSQ_ISF_EENSQ_ISL_EEEEEEE @3228 DATA
    _ZTSN5boost3_bi6bind_tINS0_11unspecifiedENS_4_mfi2mfIMN6Slic3r18TriangleMeshSlicerILNS5_4AxisE1EEEKFvyPSt6vectorIS9_INS5_16IntersectionLineESaISA_EESaISC_EEPNS_5mutexERKS9_IfSaIfEEEvS8_JySF_SH_SL_EEENS0_4listIJNS0_5valueIPKS8_EENS_3argILi1EEENSQ_ISF_EENSQ_ISH_EENSQ_ISJ_EEEEEEE @3229 DATA
    _ZTSN5boost3_bi6bind_tINS0_11unspecifiedENS_4_mfi2mfIMN6Slic3r18TriangleMeshSlicerILNS5_4AxisE1EEEKFvyPSt6vectorIS9_INS5_16IntersectionLineESaISA_EESaISC_EEPS9_IS9_INS5_7PolygonESaISG_EESaISI_EEEvS8_JySF_SL_EEENS0_4listIJNS0_5valueIPKS8_EENS_3argILi1EEENSQ_ISF_EENSQ_ISL_EEEEEEE @3230 DATA
    _ZTSN5boost3_bi6bind_tINS0_11unspecifiedENS_4_mfi2mfIMN6Slic3r18TriangleMeshSlicerILNS5_4AxisE2EEEKFvyPSt6vectorIS9_INS5_16IntersectionLineESaISA_EESaISC_EEPNS_5mutexERKS9_IfSaIfEEEvS8_JySF_SH_SL_EEENS0_4listIJNS0_5valueIPKS8_EENS_3argILi1EEENSQ_ISF_EENSQ_ISH_EENSQ_ISJ_EEEEEEE @3231 DATA
    _ZTSN5boost3_bi6bind_tINS0_11unspecifiedENS_4_mfi2mfIMN6Slic3r18TriangleMeshSlicerILNS5_4AxisE2EEEKFvyPSt6vectorIS9_INS5_16IntersectionLineESaISA_EESaISC_EEPS9_IS9_INS5_7PolygonESaISG_EESaISI_EEEvS8_JySF_SL_EEENS0_4listIJNS0_5valueIPKS8_EENS_3argILi1EEENSQ_ISF_EENSQ_ISL_EEEEEEE @3232 DATA
    _ZTSN5boost3_bi6bind_tINS0_11unspecifiedENS_4_mfi2mfIMN6Slic3r5LayerEFvvEvS6_JEEENS0_4listIJNS_3argILi1EEEEEEEE @3233 DATA
    _ZTSN5boost3_bi6bind_tINS0_11unspecifiedENS_4_mfi2mfIMN6Slic3r8SLAPrintEFvyPKNS5_4FillEEvS6_JyS9_EEENS0_4listIJNS0_5valueIPS6_EENS_3argILi1EEENSE_IPS7_EEEEEEE @3234 DATA
    _ZTSN5boost6detail11thread_dataINS_3_bi6bind_tIvPFvPSt5queueIPN6Slic3r17SurfaceCollectionESt5dequeIS7_SaIS7_EEEPNS_5mutexENS_8functionIFvS7_EEEENS2_4listIJNS2_5valueISC_EENSL_ISE_EENSL_ISH_EEEEEEEEE @3235 DATA
    _ZTSN5boost6detail11thread_dataINS_3_bi6bind_tIvPFvPSt5queueIPN6Slic3r5LayerESt5dequeIS7_SaIS7_EEEPNS_5mutexENS_8functionIFvS7_EEEENS2_4listIJNS2_5valueISC_EENSL_ISE_EENSL_ISH_EEEEEEEEE @3236 DATA
    _ZTSN5boost6detail11thread_dataINS_3_bi6bind_tIvPFvPSt5queueIiSt5dequeIiSaIiEEEPNS_5mutexENS_8functionIFviEEEENS2_4listIJNS2_5valueIS9_EENSI_ISB_EENSI_ISE_EEEEEEEEE @3237 DATA
    _ZTSN5boost6detail11thread_dataINS_3_bi6bind_tIvPFvPSt5queueIySt5dequeIySaIyEEEPNS_5mutexENS_8functionIFvyEEEENS2_4listIJNS2_5valueIS9_EENSI_ISB_EENSI_ISE_EEEEEEEEE @3238 DATA
    _ZTSN5boost6detail15sp_counted_baseE @3239 DATA
    _ZTSN5boost6detail16basic_pointerbufIcSt15basic_streambufIcSt11char_traitsIcEEEE @3240 DATA
    _ZTSN5boost6detail16thread_data_baseE @3241 DATA
    _ZTSN5boost6detail17sp_counted_impl_pINS_16exception_detail10clone_implINS2_10bad_alloc_EEEEE @3242 DATA
    _ZTSN5boost6detail17sp_counted_impl_pINS_16exception_detail10clone_implINS2_14bad_exception_EEEEE @3243 DATA
    _ZTSN5boost6detail17sp_counted_impl_pINS_16exception_detail15error_info_baseEEE @3244 DATA
    _ZTSN5boost6detail5lcast17basic_unlockedbufISt15basic_streambufIcSt11char_traitsIcEEcEE @3245 DATA
    _ZTSN5boost6locale4conv16conversion_errorE @3246 DATA
    _ZTSN5boost6nowide13basic_filebufIcSt11char_traitsIcEEE @3247 DATA
    _ZTSN5boost6nowide14basic_ifstreamIcSt11char_traitsIcEEE @3248 DATA
    _ZTSN5boost6nowide14basic_ofstreamIcSt11char_traitsIcEEE @3249 DATA
    _ZTSN5boost6nowide6detail10buf_holderINS0_13basic_filebufIcSt11char_traitsIcEEEEE @3250 DATA
    _ZTSN5boost6nowide6detail12fstream_implIcSt11char_traitsIcENS1_12StreamTypeInELi1EEE @3251 DATA
    _ZTSN5boost6nowide6detail12fstream_implIcSt11char_traitsIcENS1_13StreamTypeOutELi1EEE @3252 DATA
    _ZTSN5boost6nowide6detail18winconsole_istreamE @3253 DATA
    _ZTSN5boost6nowide6detail18winconsole_ostreamE @3254 DATA
    _ZTSN5boost6nowide6detail20console_input_bufferE @3255 DATA
    _ZTSN5boost6nowide6detail21console_output_bufferE @3256 DATA
    _ZTSN5boost6nowide6detail25console_input_buffer_baseE @3257 DATA
    _ZTSN5boost6nowide6detail26console_output_buffer_baseE @3258 DATA
    _ZTSN5boost6system12system_errorE @3259 DATA
    _ZTSN5boost6system14error_categoryE @3260 DATA
    _ZTSN5boost6system6detail12std_categoryE @3261 DATA
    _ZTSN5boost6system6detail21system_error_categoryE @3262 DATA
    _ZTSN5boost6system6detail22generic_error_categoryE @3263 DATA
    _ZTSN5boost6system6detail22interop_error_categoryE @3264 DATA
    _ZTSN5boost9algorithm6detail13token_finderFINS1_10is_any_ofFIcEEEE @3265 DATA
    _ZTSN5boost9exceptionE @3266 DATA
    _ZTSN6Slic3r10ConfigBaseE @3267 DATA
    _ZTSN6Slic3r10FillGyroidE @3268 DATA
    _ZTSN6Slic3r10MultiPointE @3269 DATA
    _ZTSN6Slic3r11FileIOErrorE @3270 DATA
    _ZTSN6Slic3r11GCodeConfigE @3271 DATA
    _ZTSN6Slic3r11PrintConfigE @3272 DATA
    _ZTSN6Slic3r12ConfigOptionE @3273 DATA
    _ZTSN6Slic3r12StaticConfigE @3274 DATA
    _ZTSN6Slic3r12SupportLayerE @3275 DATA
    _ZTSN6Slic3r13DynamicConfigE @3276 DATA
    _ZTSN6Slic3r13ExtrusionLoopE @3277 DATA
    _ZTSN6Slic3r13ExtrusionPathE @3278 DATA
    _ZTSN6Slic3r13FillHoneycombE @3279 DATA
    _ZTSN6Slic3r13FillPlanePathE @3280 DATA
    _ZTSN6Slic3r13FillTrianglesE @3281 DATA
    _ZTSN6Slic3r13ThickPolylineE @3282 DATA
    _ZTSN6Slic3r14FillConcentricE @3283 DATA
    _ZTSN6Slic3r14SLAPrintConfigE @3284 DATA
    _ZTSN6Slic3r15ConfigOptionIntE @3285 DATA
    _ZTSN6Slic3r15ExtrusionEntityE @3286 DATA
    _ZTSN6Slic3r15Fill3DHoneycombE @3287 DATA
    _ZTSN6Slic3r15FillRectilinearE @3288 DATA
    _ZTSN6Slic3r15PrintConfigBaseE @3289 DATA
    _ZTSN6Slic3r16ConfigOptionBoolE @3290 DATA
    _ZTSN6Slic3r16ConfigOptionEnumINS_11GCodeFlavorEEE @3291 DATA
    _ZTSN6Slic3r16ConfigOptionEnumINS_12SeamPositionEEE @3292 DATA
    _ZTSN6Slic3r16ConfigOptionEnumINS_13InfillPatternEEE @3293 DATA
    _ZTSN6Slic3r16ConfigOptionEnumINS_22SupportMaterialPatternEEE @3294 DATA
    _ZTSN6Slic3r16ConfigOptionEnumINS_8HostTypeEEE @3295 DATA
    _ZTSN6Slic3r16ConfigOptionIntsE @3296 DATA
    _ZTSN6Slic3r16FillHilbertCurveE @3297 DATA
    _ZTSN6Slic3r17ConfigOptionBoolsE @3298 DATA
    _ZTSN6Slic3r17ConfigOptionFloatE @3299 DATA
    _ZTSN6Slic3r17ConfigOptionPointE @3300 DATA
    _ZTSN6Slic3r17CriticalExceptionE @3301 DATA
    _ZTSN6Slic3r17PrintObjectConfigE @3302 DATA
    _ZTSN6Slic3r17PrintRegionConfigE @3303 DATA
    _ZTSN6Slic3r17StaticPrintConfigE @3304 DATA
    _ZTSN6Slic3r18ConfigOptionFloatsE @3305 DATA
    _ZTSN6Slic3r18ConfigOptionPoint3E @3306 DATA
    _ZTSN6Slic3r18ConfigOptionPointsE @3307 DATA
    _ZTSN6Slic3r18ConfigOptionSingleINS_11GCodeFlavorEEE @3308 DATA
    _ZTSN6Slic3r18ConfigOptionSingleINS_12SeamPositionEEE @3309 DATA
    _ZTSN6Slic3r18ConfigOptionSingleINS_13InfillPatternEEE @3310 DATA
    _ZTSN6Slic3r18ConfigOptionSingleINS_22SupportMaterialPatternEEE @3311 DATA
    _ZTSN6Slic3r18ConfigOptionSingleINS_6PointfEEE @3312 DATA
    _ZTSN6Slic3r18ConfigOptionSingleINS_7Pointf3EEE @3313 DATA
    _ZTSN6Slic3r18ConfigOptionSingleINS_8HostTypeEEE @3314 DATA
    _ZTSN6Slic3r18ConfigOptionSingleINSt7__cxx1112basic_stringIcSt11char_traitsIcESaIcEEEEE @3315 DATA
    _ZTSN6Slic3r18ConfigOptionSingleIbEE @3316 DATA
    _ZTSN6Slic3r18ConfigOptionSingleIdEE @3317 DATA
    _ZTSN6Slic3r18ConfigOptionSingleIiEE @3318 DATA
    _ZTSN6Slic3r18ConfigOptionStringE @3319 DATA
    _ZTSN6Slic3r18ConfigOptionVectorINS_6PointfEEE @3320 DATA
    _ZTSN6Slic3r18ConfigOptionVectorINSt7__cxx1112basic_stringIcSt11char_traitsIcESaIcEEEEE @3321 DATA
    _ZTSN6Slic3r18ConfigOptionVectorIbEE @3322 DATA
    _ZTSN6Slic3r18ConfigOptionVectorIdEE @3323 DATA
    _ZTSN6Slic3r18ConfigOptionVectorIiEE @3324 DATA
    _ZTSN6Slic3r18DynamicPrintConfigE @3325 DATA
    _ZTSN6Slic3r18FillOctagramSpiralE @3326 DATA
    _ZTSN6Slic3r19ConfigOptionPercentE @3327 DATA
    _ZTSN6Slic3r19ConfigOptionStringsE @3328 DATA
    _ZTSN6Slic3r21ConfigOptionExceptionE @3329 DATA
    _ZTSN6Slic3r21FillArchimedeanChordsE @3330 DATA
    _ZTSN6Slic3r21InvalidPrintExceptionE @3331 DATA
    _ZTSN6Slic3r22BadOptionTypeExceptionE @3332 DATA
    _ZTSN6Slic3r22ConfigOptionVectorBaseE @3333 DATA
    _ZTSN6Slic3r22FillAlignedRectilinearE @3334 DATA
    _ZTSN6Slic3r22InvalidOptionExceptionE @3335 DATA
    _ZTSN6Slic3r22UnknownOptionExceptionE @3336 DATA
    _ZTSN6Slic3r23ConfigOptionEnumGenericE @3337 DATA
    _ZTSN6Slic3r25ExtrusionEntityCollectionE @3338 DATA
    _ZTSN6Slic3r26ConfigOptionFloatOrPercentE @3339 DATA
    _ZTSN6Slic3r4FillE @3340 DATA
    _ZTSN6Slic3r5LayerE @3341 DATA
    _ZTSN6Slic3r7IOErrorE @3342 DATA
    _ZTSN6Slic3r7PolygonE @3343 DATA
    _ZTSN6Slic3r8ExtruderE @3344 DATA
    _ZTSN6Slic3r8FillGridE @3345 DATA
    _ZTSN6Slic3r8PolylineE @3346 DATA
    _ZTSN6Slic3r9ExceptionE @3347 DATA
    _ZTSN6Slic3r9FillCubicE @3348 DATA
    _ZTSN6Slic3r9FillStarsE @3349 DATA
    _ZTSN7tinyobj14MaterialReaderE @3350 DATA
    _ZTSN7tinyobj18MaterialFileReaderE @3351 DATA
    _ZTSN7tinyobj20MaterialStreamReaderE @3352 DATA
    _ZTSNSt10filesystem7__cxx1116filesystem_errorE @3353 DATA
    _ZTSNSt10filesystem7__cxx114path8_CodecvtIwEE @3354 DATA
    _ZTSNSt3_V214error_categoryE @3355 DATA
    _ZTSNSt6locale5facetE @3356 DATA
    _ZTSNSt6thread11_State_implINS_8_InvokerISt5tupleIJMN4Marc6LoggerEFvvEPS4_EEEEEE @3357 DATA
    _ZTSNSt6thread6_StateE @3358 DATA
    _ZTSNSt7__cxx1112basic_stringIcSt11char_traitsIcESaIcEEE @3359 DATA
    _ZTSNSt8__detail11_AnyMatcherINSt7__cxx1112regex_traitsIcEELb0ELb0ELb0EEE @3360 DATA
    _ZTSNSt8__detail11_AnyMatcherINSt7__cxx1112regex_traitsIcEELb0ELb0ELb1EEE @3361 DATA
    _ZTSNSt8__detail11_AnyMatcherINSt7__cxx1112regex_traitsIcEELb0ELb1ELb0EEE @3362 DATA
    _ZTSNSt8__detail11_AnyMatcherINSt7__cxx1112regex_traitsIcEELb0ELb1ELb1EEE @3363 DATA
    _ZTSNSt8__detail11_AnyMatcherINSt7__cxx1112regex_traitsIcEELb1ELb0ELb0EEE @3364 DATA
    _ZTSNSt8__detail11_AnyMatcherINSt7__cxx1112regex_traitsIcEELb1ELb0ELb1EEE @3365 DATA
    _ZTSNSt8__detail11_AnyMatcherINSt7__cxx1112regex_traitsIcEELb1ELb1ELb0EEE @3366 DATA
    _ZTSNSt8__detail11_AnyMatcherINSt7__cxx1112regex_traitsIcEELb1ELb1ELb1EEE @3367 DATA
    _ZTSNSt8__detail12_CharMatcherINSt7__cxx1112regex_traitsIcEELb0ELb0EEE @3368 DATA
    _ZTSNSt8__detail12_CharMatcherINSt7__cxx1112regex_traitsIcEELb0ELb1EEE @3369 DATA
    _ZTSNSt8__detail12_CharMatcherINSt7__cxx1112regex_traitsIcEELb1ELb0EEE @3370 DATA
    _ZTSNSt8__detail12_CharMatcherINSt7__cxx1112regex_traitsIcEELb1ELb1EEE @3371 DATA
    _ZTSNSt8__detail15_BracketMatcherINSt7__cxx1112regex_traitsIcEELb0ELb0EEE @3372 DATA
    _ZTSNSt8__detail15_BracketMatcherINSt7__cxx1112regex_traitsIcEELb0ELb1EEE @3373 DATA
    _ZTSNSt8__detail15_BracketMatcherINSt7__cxx1112regex_traitsIcEELb1ELb0EEE @3374 DATA
    _ZTSNSt8__detail15_BracketMatcherINSt7__cxx1112regex_traitsIcEELb1ELb1EEE @3375 DATA
    _ZTSNSt8ios_base7failureB5cxx11E @3376 DATA
    _ZTSSt10ctype_base @3377 DATA
    _ZTSSt11_Mutex_baseILN9__gnu_cxx12_Lock_policyE2EE @3378 DATA
    _ZTSSt11logic_error @3379 DATA
    _ZTSSt11regex_error @3380 DATA
    _ZTSSt12codecvt_base @3381 DATA
    _ZTSSt12out_of_range @3382 DATA
    _ZTSSt12system_error @3383 DATA
    _ZTSSt13bad_exception @3384 DATA
    _ZTSSt13runtime_error @3385 DATA
    _ZTSSt16_Sp_counted_baseILN9__gnu_cxx12_Lock_policyE2EE @3386 DATA
    _ZTSSt18codecvt_utf8_utf16IwLm1114111ELSt12codecvt_mode0EE @3387 DATA
    _ZTSSt19_Sp_make_shared_tag @3388 DATA
    _ZTSSt23_Sp_counted_ptr_inplaceINSt8__detail4_NFAINSt7__cxx1112regex_traitsIcEEEESaIvELN9__gnu_cxx12_Lock_policyE2EE @3389 DATA
    _ZTSSt23__codecvt_abstract_baseIwc9_MbstatetE @3390 DATA
    _ZTSSt25__codecvt_utf8_utf16_baseIwE @3391 DATA
    _ZTSSt5ctypeIcE @3392 DATA
    _ZTSSt7codecvtIwc9_MbstatetE @3393 DATA
    _ZTSSt8bad_cast @3394 DATA
    _ZTSSt9bad_alloc @3395 DATA
    _ZTSSt9exception @3396 DATA
    _ZTTN10ClipperLib7ClipperE @3397 DATA
    _ZTTN5boost16exception_detail10clone_implINS0_10bad_alloc_EEE @3398 DATA
    _ZTTN5boost16exception_detail10clone_implINS0_14bad_exception_EEE @3399 DATA
    _ZTTN5boost6nowide14basic_ifstreamIcSt11char_traitsIcEEE @3400 DATA
    _ZTTN5boost6nowide14basic_ofstreamIcSt11char_traitsIcEEE @3401 DATA
    _ZTTN5boost6nowide6detail18winconsole_istreamE @3402 DATA
    _ZTTN5boost6nowide6detail18winconsole_ostreamE @3403 DATA
    _ZTTN6Slic3r11PrintConfigE @3404 DATA
    _ZTTN6Slic3r12StaticConfigE @3405 DATA
    _ZTTN6Slic3r13DynamicConfigE @3406 DATA
    _ZTTN6Slic3r14SLAPrintConfigE @3407 DATA
    _ZTTN6Slic3r17PrintObjectConfigE @3408 DATA
    _ZTTN6Slic3r17PrintRegionConfigE @3409 DATA
    _ZTTN6Slic3r18DynamicPrintConfigE @3410 DATA
    _ZTV10NullStream @3411 DATA
    _ZTV11BSplineBaseIdE @3412 DATA
    _ZTV7BSplineIdE @3413 DATA
    _ZTVN10ClipperLib11ClipperBaseE @3414 DATA
    _ZTVN10ClipperLib16clipperExceptionE @3415 DATA
    _ZTVN10ClipperLib7ClipperE @3416 DATA
    _ZTVN10ClipperLib8PolyNodeE @3417 DATA
    _ZTVN10ClipperLib8PolyTreeE @3418 DATA
    _ZTVN5boost10error_infoINS_27tag_original_exception_typeEPKSt9type_infoEE @3419 DATA
    _ZTVN5boost10filesystem16filesystem_errorE @3420 DATA
    _ZTVN5boost10filesystem6detail20windows_file_codecvtE @3421 DATA
    _ZTVN5boost10lock_errorE @3422 DATA
    _ZTVN5boost10wrapexceptINS_10lock_errorEEE @3423 DATA
    _ZTVN5boost10wrapexceptINS_13property_tree10ini_parser16ini_parser_errorEEE @3424 DATA
    _ZTVN5boost10wrapexceptINS_16bad_lexical_castEEE @3425 DATA
    _ZTVN5boost10wrapexceptINS_17bad_function_callEEE @3426 DATA
    _ZTVN5boost10wrapexceptINS_21thread_resource_errorEEE @3427 DATA
    _ZTVN5boost10wrapexceptISt9bad_allocEE @3428 DATA
    _ZTVN5boost13property_tree10ini_parser16ini_parser_errorE @3429 DATA
    _ZTVN5boost13property_tree11ptree_errorE @3430 DATA
    _ZTVN5boost13property_tree17file_parser_errorE @3431 DATA
    _ZTVN5boost16bad_lexical_castE @3432 DATA
    _ZTVN5boost16exception_detail10bad_alloc_E @3433 DATA
    _ZTVN5boost16exception_detail10clone_baseE @3434 DATA
    _ZTVN5boost16exception_detail10clone_implINS0_10bad_alloc_EEE @3435 DATA
    _ZTVN5boost16exception_detail10clone_implINS0_14bad_exception_EEE @3436 DATA
    _ZTVN5boost16exception_detail14bad_exception_E @3437 DATA
    _ZTVN5boost16exception_detail25error_info_container_implE @3438 DATA
    _ZTVN5boost16thread_exceptionE @3439 DATA
    _ZTVN5boost17bad_function_callE @3440 DATA
    _ZTVN5boost21thread_resource_errorE @3441 DATA
    _ZTVN5boost6detail11thread_dataINS_3_bi6bind_tIvPFvPSt5queueIPN6Slic3r17SurfaceCollectionESt5dequeIS7_SaIS7_EEEPNS_5mutexENS_8functionIFvS7_EEEENS2_4listIJNS2_5valueISC_EENSL_ISE_EENSL_ISH_EEEEEEEEE @3442 DATA
    _ZTVN5boost6detail11thread_dataINS_3_bi6bind_tIvPFvPSt5queueIPN6Slic3r5LayerESt5dequeIS7_SaIS7_EEEPNS_5mutexENS_8functionIFvS7_EEEENS2_4listIJNS2_5valueISC_EENSL_ISE_EENSL_ISH_EEEEEEEEE @3443 DATA
    _ZTVN5boost6detail11thread_dataINS_3_bi6bind_tIvPFvPSt5queueIiSt5dequeIiSaIiEEEPNS_5mutexENS_8functionIFviEEEENS2_4listIJNS2_5valueIS9_EENSI_ISB_EENSI_ISE_EEEEEEEEE @3444 DATA
    _ZTVN5boost6detail11thread_dataINS_3_bi6bind_tIvPFvPSt5queueIySt5dequeIySaIyEEEPNS_5mutexENS_8functionIFvyEEEENS2_4listIJNS2_5valueIS9_EENSI_ISB_EENSI_ISE_EEEEEEEEE @3445 DATA
    _ZTVN5boost6detail16thread_data_baseE @3446 DATA
    _ZTVN5boost6detail17sp_counted_impl_pINS_16exception_detail10clone_implINS2_10bad_alloc_EEEEE @3447 DATA
    _ZTVN5boost6detail17sp_counted_impl_pINS_16exception_detail10clone_implINS2_14bad_exception_EEEEE @3448 DATA
    _ZTVN5boost6detail17sp_counted_impl_pINS_16exception_detail15error_info_baseEEE @3449 DATA
    _ZTVN5boost6detail5lcast17basic_unlockedbufISt15basic_streambufIcSt11char_traitsIcEEcEE @3450 DATA
    _ZTVN5boost6locale4conv16conversion_errorE @3451 DATA
    _ZTVN5boost6nowide13basic_filebufIcSt11char_traitsIcEEE @3452 DATA
    _ZTVN5boost6nowide14basic_ifstreamIcSt11char_traitsIcEEE @3453 DATA
    _ZTVN5boost6nowide14basic_ofstreamIcSt11char_traitsIcEEE @3454 DATA
    _ZTVN5boost6nowide6detail18winconsole_istreamE @3455 DATA
    _ZTVN5boost6nowide6detail18winconsole_ostreamE @3456 DATA
    _ZTVN5boost6nowide6detail20console_input_bufferE @3457 DATA
    _ZTVN5boost6nowide6detail21console_output_bufferE @3458 DATA
    _ZTVN5boost6nowide6detail25console_input_buffer_baseE @3459 DATA
    _ZTVN5boost6nowide6detail26console_output_buffer_baseE @3460 DATA
    _ZTVN5boost6system12system_errorE @3461 DATA
    _ZTVN5boost6system14error_categoryE @3462 DATA
    _ZTVN5boost6system6detail12std_categoryE @3463 DATA
    _ZTVN5boost6system6detail21system_error_categoryE @3464 DATA
    _ZTVN5boost6system6detail22generic_error_categoryE @3465 DATA
    _ZTVN5boost6system6detail22interop_error_categoryE @3466 DATA
    _ZTVN5boost9exceptionE @3467 DATA
    _ZTVN6Slic3r10FillGyroidE @3468 DATA
    _ZTVN6Slic3r10MultiPointE @3469 DATA
    _ZTVN6Slic3r11FileIOErrorE @3470 DATA
    _ZTVN6Slic3r11PrintConfigE @3471 DATA
    _ZTVN6Slic3r12StaticConfigE @3472 DATA
    _ZTVN6Slic3r12SupportLayerE @3473 DATA
    _ZTVN6Slic3r13DynamicConfigE @3474 DATA
    _ZTVN6Slic3r13ExtrusionLoopE @3475 DATA
    _ZTVN6Slic3r13ExtrusionPathE @3476 DATA
    _ZTVN6Slic3r13FillHoneycombE @3477 DATA
    _ZTVN6Slic3r13FillPlanePathE @3478 DATA
    _ZTVN6Slic3r13FillTrianglesE @3479 DATA
    _ZTVN6Slic3r13ThickPolylineE @3480 DATA
    _ZTVN6Slic3r14FillConcentricE @3481 DATA
    _ZTVN6Slic3r14SLAPrintConfigE @3482 DATA
    _ZTVN6Slic3r15ConfigOptionIntE @3483 DATA
    _ZTVN6Slic3r15Fill3DHoneycombE @3484 DATA
    _ZTVN6Slic3r15FillRectilinearE @3485 DATA
    _ZTVN6Slic3r16ConfigOptionBoolE @3486 DATA
    _ZTVN6Slic3r16ConfigOptionEnumINS_11GCodeFlavorEEE @3487 DATA
    _ZTVN6Slic3r16ConfigOptionEnumINS_12SeamPositionEEE @3488 DATA
    _ZTVN6Slic3r16ConfigOptionEnumINS_13InfillPatternEEE @3489 DATA
    _ZTVN6Slic3r16ConfigOptionEnumINS_22SupportMaterialPatternEEE @3490 DATA
    _ZTVN6Slic3r16ConfigOptionEnumINS_8HostTypeEEE @3491 DATA
    _ZTVN6Slic3r16ConfigOptionIntsE @3492 DATA
    _ZTVN6Slic3r16FillHilbertCurveE @3493 DATA
    _ZTVN6Slic3r17ConfigOptionBoolsE @3494 DATA
    _ZTVN6Slic3r17ConfigOptionFloatE @3495 DATA
    _ZTVN6Slic3r17ConfigOptionPointE @3496 DATA
    _ZTVN6Slic3r17PrintObjectConfigE @3497 DATA
    _ZTVN6Slic3r17PrintRegionConfigE @3498 DATA
    _ZTVN6Slic3r18ConfigOptionFloatsE @3499 DATA
    _ZTVN6Slic3r18ConfigOptionPoint3E @3500 DATA
    _ZTVN6Slic3r18ConfigOptionPointsE @3501 DATA
    _ZTVN6Slic3r18ConfigOptionSingleINSt7__cxx1112basic_stringIcSt11char_traitsIcESaIcEEEEE @3502 DATA
    _ZTVN6Slic3r18ConfigOptionStringE @3503 DATA
    _ZTVN6Slic3r18ConfigOptionVectorINS_6PointfEEE @3504 DATA
    _ZTVN6Slic3r18ConfigOptionVectorINSt7__cxx1112basic_stringIcSt11char_traitsIcESaIcEEEEE @3505 DATA
    _ZTVN6Slic3r18ConfigOptionVectorIbEE @3506 DATA
    _ZTVN6Slic3r18ConfigOptionVectorIdEE @3507 DATA
    _ZTVN6Slic3r18ConfigOptionVectorIiEE @3508 DATA
    _ZTVN6Slic3r18DynamicPrintConfigE @3509 DATA
    _ZTVN6Slic3r18FillOctagramSpiralE @3510 DATA
    _ZTVN6Slic3r19ConfigOptionPercentE @3511 DATA
    _ZTVN6Slic3r19ConfigOptionStringsE @3512 DATA
    _ZTVN6Slic3r21ConfigOptionExceptionE @3513 DATA
    _ZTVN6Slic3r21FillArchimedeanChordsE @3514 DATA
    _ZTVN6Slic3r21InvalidPrintExceptionE @3515 DATA
    _ZTVN6Slic3r22BadOptionTypeExceptionE @3516 DATA
    _ZTVN6Slic3r22FillAlignedRectilinearE @3517 DATA
    _ZTVN6Slic3r22InvalidOptionExceptionE @3518 DATA
    _ZTVN6Slic3r22UnknownOptionExceptionE @3519 DATA
    _ZTVN6Slic3r23ConfigOptionEnumGenericE @3520 DATA
    _ZTVN6Slic3r25ExtrusionEntityCollectionE @3521 DATA
    _ZTVN6Slic3r26ConfigOptionFloatOrPercentE @3522 DATA
    _ZTVN6Slic3r4FillE @3523 DATA
    _ZTVN6Slic3r5LayerE @3524 DATA
    _ZTVN6Slic3r7PolygonE @3525 DATA
    _ZTVN6Slic3r8ExtruderE @3526 DATA
    _ZTVN6Slic3r8FillGridE @3527 DATA
    _ZTVN6Slic3r8PolylineE @3528 DATA
    _ZTVN6Slic3r9ExceptionE @3529 DATA
    _ZTVN6Slic3r9FillCubicE @3530 DATA
    _ZTVN6Slic3r9FillStarsE @3531 DATA
    _ZTVN7tinyobj14MaterialReaderE @3532 DATA
    _ZTVN7tinyobj18MaterialFileReaderE @3533 DATA
    _ZTVN7tinyobj20MaterialStreamReaderE @3534 DATA
    _ZTVNSt10filesystem7__cxx114path8_CodecvtIwEE @3535 DATA
    _ZTVNSt6thread11_State_implINS_8_InvokerISt5tupleIJMN4Marc6LoggerEFvvEPS4_EEEEEE @3536 DATA
    _ZTVSt18codecvt_utf8_utf16IwLm1114111ELSt12codecvt_mode0EE @3537 DATA
    _ZTVSt23_Sp_counted_ptr_inplaceINSt8__detail4_NFAINSt7__cxx1112regex_traitsIcEEEESaIvELN9__gnu_cxx12_Lock_policyE2EE @3538 DATA
    _ZThn16_N5boost10wrapexceptISt9bad_allocED0Ev @3539
    _ZThn16_N5boost10wrapexceptISt9bad_allocED1Ev @3540
    _ZThn24_N5boost10wrapexceptINS_17bad_function_callEED0Ev @3541
    _ZThn24_N5boost10wrapexceptINS_17bad_function_callEED1Ev @3542
    _ZThn32_N5boost10wrapexceptINS_16bad_lexical_castEED0Ev @3543
    _ZThn32_N5boost10wrapexceptINS_16bad_lexical_castEED1Ev @3544
    _ZThn40_N5boost16exception_detail10bad_alloc_D0Ev @3545
    _ZThn40_N5boost16exception_detail10bad_alloc_D1Ev @3546
    _ZThn40_N5boost16exception_detail10clone_implINS0_10bad_alloc_EED0Ev @3547
    _ZThn40_N5boost16exception_detail10clone_implINS0_10bad_alloc_EED1Ev @3548
    _ZThn40_N5boost16exception_detail10clone_implINS0_14bad_exception_EED0Ev @3549
    _ZThn40_N5boost16exception_detail10clone_implINS0_14bad_exception_EED1Ev @3550
    _ZThn40_N5boost16exception_detail14bad_exception_D0Ev @3551
    _ZThn40_N5boost16exception_detail14bad_exception_D1Ev @3552
    _ZThn48_N5boost10wrapexceptINS_10lock_errorEED0Ev @3553
    _ZThn48_N5boost10wrapexceptINS_10lock_errorEED1Ev @3554
    _ZThn48_N5boost10wrapexceptINS_21thread_resource_errorEED0Ev @3555
    _ZThn48_N5boost10wrapexceptINS_21thread_resource_errorEED1Ev @3556
    _ZThn8_N5boost10wrapexceptINS_10lock_errorEED0Ev @3557
    _ZThn8_N5boost10wrapexceptINS_10lock_errorEED1Ev @3558
    _ZThn8_N5boost10wrapexceptINS_13property_tree10ini_parser16ini_parser_errorEED0Ev @3559
    _ZThn8_N5boost10wrapexceptINS_13property_tree10ini_parser16ini_parser_errorEED1Ev @3560
    _ZThn8_N5boost10wrapexceptINS_16bad_lexical_castEED0Ev @3561
    _ZThn8_N5boost10wrapexceptINS_16bad_lexical_castEED1Ev @3562
    _ZThn8_N5boost10wrapexceptINS_17bad_function_callEED0Ev @3563
    _ZThn8_N5boost10wrapexceptINS_17bad_function_callEED1Ev @3564
    _ZThn8_N5boost10wrapexceptINS_21thread_resource_errorEED0Ev @3565
    _ZThn8_N5boost10wrapexceptINS_21thread_resource_errorEED1Ev @3566
    _ZThn8_N5boost10wrapexceptISt9bad_allocED0Ev @3567
    _ZThn8_N5boost10wrapexceptISt9bad_allocED1Ev @3568
    _ZThn8_N6Slic3r18DynamicPrintConfigD0Ev @3569
    _ZThn8_N6Slic3r18DynamicPrintConfigD1Ev @3570
    _ZThn96_N5boost10wrapexceptINS_13property_tree10ini_parser16ini_parser_errorEED0Ev @3571
    _ZThn96_N5boost10wrapexceptINS_13property_tree10ini_parser16ini_parser_errorEED1Ev @3572
    _ZTv0_n24_N10ClipperLib7ClipperD0Ev @3573
    _ZTv0_n24_N10ClipperLib7ClipperD1Ev @3574
    _ZTv0_n24_N5boost6nowide14basic_ifstreamIcSt11char_traitsIcEED0Ev @3575
    _ZTv0_n24_N5boost6nowide14basic_ifstreamIcSt11char_traitsIcEED1Ev @3576
    _ZTv0_n24_N5boost6nowide14basic_ofstreamIcSt11char_traitsIcEED0Ev @3577
    _ZTv0_n24_N5boost6nowide14basic_ofstreamIcSt11char_traitsIcEED1Ev @3578
    _ZTv0_n24_N5boost6nowide6detail18winconsole_istreamD0Ev @3579
    _ZTv0_n24_N5boost6nowide6detail18winconsole_istreamD1Ev @3580
    _ZTv0_n24_N5boost6nowide6detail18winconsole_ostreamD0Ev @3581
    _ZTv0_n24_N5boost6nowide6detail18winconsole_ostreamD1Ev @3582
    _ZTv0_n24_N6Slic3r11PrintConfigD0Ev @3583
    _ZTv0_n24_N6Slic3r11PrintConfigD1Ev @3584
    _ZTv0_n24_N6Slic3r13DynamicConfigD0Ev @3585
    _ZTv0_n24_N6Slic3r13DynamicConfigD1Ev @3586
    _ZTv0_n24_N6Slic3r14SLAPrintConfigD0Ev @3587
    _ZTv0_n24_N6Slic3r14SLAPrintConfigD1Ev @3588
    _ZTv0_n24_N6Slic3r17PrintObjectConfigD0Ev @3589
    _ZTv0_n24_N6Slic3r17PrintObjectConfigD1Ev @3590
    _ZTv0_n24_N6Slic3r17PrintRegionConfigD0Ev @3591
    _ZTv0_n24_N6Slic3r17PrintRegionConfigD1Ev @3592
    _ZTv0_n24_N6Slic3r18DynamicPrintConfigD0Ev @3593
    _ZTv0_n24_N6Slic3r18DynamicPrintConfigD1Ev @3594
    _ZTv0_n24_NK5boost16exception_detail10clone_implINS0_10bad_alloc_EE5cloneEv @3595
    _ZTv0_n24_NK5boost16exception_detail10clone_implINS0_14bad_exception_EE5cloneEv @3596
    _ZTv0_n32_N6Slic3r11GCodeConfig6optptrERKNSt7__cxx1112basic_stringIcSt11char_traitsIcESaIcEEEb @3597
    _ZTv0_n32_N6Slic3r11PrintConfig6optptrERKNSt7__cxx1112basic_stringIcSt11char_traitsIcESaIcEEEb @3598
    _ZTv0_n32_N6Slic3r11PrintConfigD0Ev @3599
    _ZTv0_n32_N6Slic3r11PrintConfigD1Ev @3600
    _ZTv0_n32_N6Slic3r13DynamicConfig6optptrERKNSt7__cxx1112basic_stringIcSt11char_traitsIcESaIcEEEb @3601
    _ZTv0_n32_N6Slic3r14SLAPrintConfig6optptrERKNSt7__cxx1112basic_stringIcSt11char_traitsIcESaIcEEEb @3602
    _ZTv0_n32_N6Slic3r14SLAPrintConfigD0Ev @3603
    _ZTv0_n32_N6Slic3r14SLAPrintConfigD1Ev @3604
    _ZTv0_n32_N6Slic3r17PrintObjectConfig6optptrERKNSt7__cxx1112basic_stringIcSt11char_traitsIcESaIcEEEb @3605
    _ZTv0_n32_N6Slic3r17PrintObjectConfigD0Ev @3606
    _ZTv0_n32_N6Slic3r17PrintObjectConfigD1Ev @3607
    _ZTv0_n32_N6Slic3r17PrintRegionConfig6optptrERKNSt7__cxx1112basic_stringIcSt11char_traitsIcESaIcEEEb @3608
    _ZTv0_n32_N6Slic3r17PrintRegionConfigD0Ev @3609
    _ZTv0_n32_N6Slic3r17PrintRegionConfigD1Ev @3610
    _ZTv0_n32_NK5boost16exception_detail10clone_implINS0_10bad_alloc_EE7rethrowEv @3611
    _ZTv0_n32_NK5boost16exception_detail10clone_implINS0_14bad_exception_EE7rethrowEv @3612
    _ZTv0_n40_N5boost16exception_detail10clone_implINS0_10bad_alloc_EED0Ev @3613
    _ZTv0_n40_N5boost16exception_detail10clone_implINS0_10bad_alloc_EED1Ev @3614
    _ZTv0_n40_N5boost16exception_detail10clone_implINS0_14bad_exception_EED0Ev @3615
    _ZTv0_n40_N5boost16exception_detail10clone_implINS0_14bad_exception_EED1Ev @3616
    _ZTv0_n40_NK6Slic3r12StaticConfig4keysB5cxx11Ev @3617
    _ZTv0_n40_NK6Slic3r13DynamicConfig4keysB5cxx11Ev @3618
    _ZTvn8_n32_N6Slic3r11PrintConfigD0Ev @3619
    _ZTvn8_n32_N6Slic3r11PrintConfigD1Ev @3620
    _ZTvn8_n32_N6Slic3r14SLAPrintConfigD0Ev @3621
    _ZTvn8_n32_N6Slic3r14SLAPrintConfigD1Ev @3622
    _ZTvn8_n32_N6Slic3r17PrintObjectConfigD0Ev @3623
    _ZTvn8_n32_N6Slic3r17PrintObjectConfigD1Ev @3624
    _ZTvn8_n32_N6Slic3r17PrintRegionConfigD0Ev @3625
    _ZTvn8_n32_N6Slic3r17PrintRegionConfigD1Ev @3626
    _ZZN11BSplineBaseIdE5DebugEiE5debug @3627 DATA
    _ZZN11BSplineBaseIdE6qDeltaEiiE6qparts @3628 DATA
    _ZZN5boost10function_nINS_14iterator_rangeIN9__gnu_cxx17__normal_iteratorIPcNSt7__cxx1112basic_stringIcSt11char_traitsIcESaIcEEEEEEEJSB_SB_EE9assign_toINS_9algorithm6detail13token_finderFINSG_10is_any_ofFIcEEEEEEvT_E13stored_vtable @3629 DATA
    _ZZN5boost10function_nIvJPN6Slic3r17SurfaceCollectionEEE9assign_toINS_3_bi6bind_tINS6_11unspecifiedENS_4_mfi2mfIMS2_FvvEvS2_JEEENS6_4listIJNS_3argILi1EEEEEEEEEEvT_E13stored_vtable @3630 DATA
    _ZZN5boost10function_nIvJPN6Slic3r5LayerEEE9assign_toINS_3_bi6bind_tINS6_11unspecifiedENS_4_mfi2mfIMS2_FvvEvS2_JEEENS6_4listIJNS_3argILi1EEEEEEEEEEvT_E13stored_vtable @3631 DATA
    _ZZN5boost10function_nIvJiEE9assign_toINS_3_bi6bind_tINS3_11unspecifiedENS_4_mfi2mfIMN6Slic3r18TriangleMeshSlicerILNS8_4AxisE0EEEKFvyPSt6vectorISC_INS8_16IntersectionLineESaISD_EESaISF_EEPNS_5mutexERKSC_IfSaIfEEEvSB_JySI_SK_SO_EEENS3_4listIJNS3_5valueIPKSB_EENS_3argILi1EEENST_ISI_EENST_ISK_EENST_ISM_EEEEEEEEEvT_E13stored_vtable @3632 DATA
    _ZZN5boost10function_nIvJiEE9assign_toINS_3_bi6bind_tINS3_11unspecifiedENS_4_mfi2mfIMN6Slic3r18TriangleMeshSlicerILNS8_4AxisE1EEEKFvyPSt6vectorISC_INS8_16IntersectionLineESaISD_EESaISF_EEPNS_5mutexERKSC_IfSaIfEEEvSB_JySI_SK_SO_EEENS3_4listIJNS3_5valueIPKSB_EENS_3argILi1EEENST_ISI_EENST_ISK_EENST_ISM_EEEEEEEEEvT_E13stored_vtable @3633 DATA
    _ZZN5boost10function_nIvJiEE9assign_toINS_3_bi6bind_tINS3_11unspecifiedENS_4_mfi2mfIMN6Slic3r18TriangleMeshSlicerILNS8_4AxisE2EEEKFvyPSt6vectorISC_INS8_16IntersectionLineESaISD_EESaISF_EEPNS_5mutexERKSC_IfSaIfEEEvSB_JySI_SK_SO_EEENS3_4listIJNS3_5valueIPKSB_EENS_3argILi1EEENST_ISI_EENST_ISK_EENST_ISM_EEEEEEEEEvT_E13stored_vtable @3634 DATA
    _ZZN5boost10function_nIvJyEE9assign_toINS_3_bi6bind_tINS3_11unspecifiedENS_4_mfi2mfIMN6Slic3r15SupportMaterialEFviNS8_16toolpaths_paramsEEvS9_JiSA_EEENS3_4listIJNS3_5valueIPS9_EENS_3argILi1EEENSF_ISA_EEEEEEEEEvT_E13stored_vtable @3635 DATA
    _ZZN5boost10function_nIvJyEE9assign_toINS_3_bi6bind_tINS3_11unspecifiedENS_4_mfi2mfIMN6Slic3r18TriangleMeshSlicerILNS8_4AxisE0EEEKFvyPSt6vectorISC_INS8_16IntersectionLineESaISD_EESaISF_EEPSC_ISC_INS8_7PolygonESaISJ_EESaISL_EEEvSB_JySI_SO_EEENS3_4listIJNS3_5valueIPKSB_EENS_3argILi1EEENST_ISI_EENST_ISO_EEEEEEEEEvT_E13stored_vtable @3636 DATA
    _ZZN5boost10function_nIvJyEE9assign_toINS_3_bi6bind_tINS3_11unspecifiedENS_4_mfi2mfIMN6Slic3r18TriangleMeshSlicerILNS8_4AxisE1EEEKFvyPSt6vectorISC_INS8_16IntersectionLineESaISD_EESaISF_EEPSC_ISC_INS8_7PolygonESaISJ_EESaISL_EEEvSB_JySI_SO_EEENS3_4listIJNS3_5valueIPKSB_EENS_3argILi1EEENST_ISI_EENST_ISO_EEEEEEEEEvT_E13stored_vtable @3637 DATA
    _ZZN5boost10function_nIvJyEE9assign_toINS_3_bi6bind_tINS3_11unspecifiedENS_4_mfi2mfIMN6Slic3r18TriangleMeshSlicerILNS8_4AxisE2EEEKFvyPSt6vectorISC_INS8_16IntersectionLineESaISD_EESaISF_EEPSC_ISC_INS8_7PolygonESaISJ_EESaISL_EEEvSB_JySI_SO_EEENS3_4listIJNS3_5valueIPKSB_EENS_3argILi1EEENST_ISI_EENST_ISO_EEEEEEEEEvT_E13stored_vtable @3638 DATA
    _ZZN5boost10function_nIvJyEE9assign_toINS_3_bi6bind_tINS3_11unspecifiedENS_4_mfi2mfIMN6Slic3r8SLAPrintEFvyPKNS8_4FillEEvS9_JySC_EEENS3_4listIJNS3_5valueIPS9_EENS_3argILi1EEENSH_IPSA_EEEEEEEEEvT_E13stored_vtable @3639 DATA
    _ZZN5boost16exception_detail27get_static_exception_objectINS0_10bad_alloc_EEENS_13exception_ptrEvE2ep @3640 DATA
    _ZZN5boost16exception_detail27get_static_exception_objectINS0_14bad_exception_EEENS_13exception_ptrEvE2ep @3641 DATA
    _ZZN5boost6detail15name_once_mutexEPcPvE16fixed_mutex_name @3642 DATA
    _ZZN9__gnu_cxx6__stoaIffcJEEET0_PFT_PKT1_PPS3_DpT2_EPKcS5_PyS9_EN11_Save_errnoD1Ev @3643
    _ZZNK5boost6system14error_category11init_stdcatEvE3mx_ @3644 DATA
    _ZZNK5boost6system14error_categorycvRKNSt3_V214error_categoryEEvE15system_instance @3645 DATA
    _ZZNKSt7__cxx1112regex_traitsIcE16lookup_classnameIPKcEENS1_10_RegexMaskET_S6_bE12__classnames @3646 DATA
    _ZZNKSt7__cxx1112regex_traitsIcE18lookup_collatenameIPKcEENS_12basic_stringIcSt11char_traitsIcESaIcEEET_SA_E14__collatenames @3647 DATA
    _ZZNKSt8__detail11_AnyMatcherINSt7__cxx1112regex_traitsIcEELb0ELb0ELb0EEclEcE5__nul @3648 DATA
    _ZZNKSt8__detail11_AnyMatcherINSt7__cxx1112regex_traitsIcEELb0ELb0ELb1EEclEcE5__nul @3649 DATA
    _ZZNKSt8__detail11_AnyMatcherINSt7__cxx1112regex_traitsIcEELb0ELb1ELb0EEclEcE5__nul @3650 DATA
    _ZZNKSt8__detail11_AnyMatcherINSt7__cxx1112regex_traitsIcEELb0ELb1ELb1EEclEcE5__nul @3651 DATA
    _ZZNKSt8__detail9_ExecutorIN9__gnu_cxx17__normal_iteratorIPKcNSt7__cxx1112basic_stringIcSt11char_traitsIcESaIcEEEEESaINS5_9sub_matchISB_EEENS5_12regex_traitsIcEELb0EE10_M_is_wordEcE3__s @3652 DATA
    _ZZNKSt8__detail9_ExecutorIN9__gnu_cxx17__normal_iteratorIPKcNSt7__cxx1112basic_stringIcSt11char_traitsIcESaIcEEEEESaINS5_9sub_matchISB_EEENS5_12regex_traitsIcEELb1EE10_M_is_wordEcE3__s @3653 DATA
    _ZZNKSt8__detail9_ExecutorIN9__gnu_cxx17__normal_iteratorIPcNSt7__cxx1112basic_stringIcSt11char_traitsIcESaIcEEEEESaINS4_9sub_matchISA_EEENS4_12regex_traitsIcEELb0EE10_M_is_wordEcE3__s @3654 DATA
    _ZZNKSt8__detail9_ExecutorIN9__gnu_cxx17__normal_iteratorIPcNSt7__cxx1112basic_stringIcSt11char_traitsIcESaIcEEEEESaINS4_9sub_matchISA_EEENS4_12regex_traitsIcEELb1EE10_M_is_wordEcE3__s @3655 DATA
    _ZZNSt19_Sp_make_shared_tag5_S_tiEvE5__tag @3656 DATA
    _ZZNSt8__detail9_CompilerINSt7__cxx1112regex_traitsIcEEE13_M_quantifierEvENKUlvE_clEv @3657
    _ZlsIdERSoS0_RK12BandedMatrixIT_E @3658
    __crt_xl_tls_callback__ @3659 DATA
    align_limit_to_full_utf8_characters @3660
    calculate_normals @3661
    miniz_def_alloc_func @3662
    miniz_def_free_func @3663
    miniz_def_realloc_func @3664
    mz_adler32 @3665
    mz_compress @3666
    mz_compress2 @3667
    mz_compressBound @3668
    mz_crc32 @3669
    mz_deflate @3670
    mz_deflateBound @3671
    mz_deflateEnd @3672
    mz_deflateInit @3673
    mz_deflateInit2 @3674
    mz_deflateReset @3675
    mz_error @3676
    mz_free @3677
    mz_inflate @3678
    mz_inflateEnd @3679
    mz_inflateInit @3680
    mz_inflateInit2 @3681
    mz_inflateReset @3682
    mz_uncompress @3683
    mz_version @3684
    mz_zip_add_mem_to_archive_file_in_place @3685
    mz_zip_add_mem_to_archive_file_in_place_v2 @3686
    mz_zip_clear_last_error @3687
    mz_zip_end @3688
    mz_zip_extract_archive_file_to_heap @3689
    mz_zip_extract_archive_file_to_heap_v2 @3690
    mz_zip_get_archive_file_start_offset @3691
    mz_zip_get_archive_size @3692
    mz_zip_get_central_dir_size @3693
    mz_zip_get_cfile @3694
    mz_zip_get_error_string @3695
    mz_zip_get_last_error @3696
    mz_zip_get_mode @3697
    mz_zip_get_type @3698
    mz_zip_is_zip64 @3699
    mz_zip_peek_last_error @3700
    mz_zip_read_archive_data @3701
    mz_zip_reader_end @3702
    mz_zip_reader_extract_file_iter_new @3703
    mz_zip_reader_extract_file_to_callback @3704
    mz_zip_reader_extract_file_to_cfile @3705
    mz_zip_reader_extract_file_to_file @3706
    mz_zip_reader_extract_file_to_heap @3707
    mz_zip_reader_extract_file_to_mem @3708
    mz_zip_reader_extract_file_to_mem_no_alloc @3709
    mz_zip_reader_extract_iter_free @3710
    mz_zip_reader_extract_iter_new @3711
    mz_zip_reader_extract_iter_read @3712
    mz_zip_reader_extract_to_callback @3713
    mz_zip_reader_extract_to_cfile @3714
    mz_zip_reader_extract_to_file @3715
    mz_zip_reader_extract_to_heap @3716
    mz_zip_reader_extract_to_mem @3717
    mz_zip_reader_extract_to_mem_no_alloc @3718
    mz_zip_reader_file_stat @3719
    mz_zip_reader_get_filename @3720
    mz_zip_reader_get_num_files @3721
    mz_zip_reader_init @3722
    mz_zip_reader_init_cfile @3723
    mz_zip_reader_init_file @3724
    mz_zip_reader_init_file_v2 @3725
    mz_zip_reader_init_mem @3726
    mz_zip_reader_is_file_a_directory @3727
    mz_zip_reader_is_file_encrypted @3728
    mz_zip_reader_is_file_supported @3729
    mz_zip_reader_locate_file @3730
    mz_zip_reader_locate_file_v2 @3731
    mz_zip_set_last_error @3732
    mz_zip_validate_archive @3733
    mz_zip_validate_file @3734
    mz_zip_validate_file_archive @3735
    mz_zip_validate_mem_archive @3736
    mz_zip_writer_add_cfile @3737
    mz_zip_writer_add_file @3738
    mz_zip_writer_add_from_zip_reader @3739
    mz_zip_writer_add_mem @3740
    mz_zip_writer_add_mem_ex @3741
    mz_zip_writer_add_mem_ex_v2 @3742
    mz_zip_writer_add_read_buf_callback @3743
    mz_zip_writer_end @3744
    mz_zip_writer_finalize_archive @3745
    mz_zip_writer_finalize_heap_archive @3746
    mz_zip_writer_init @3747
    mz_zip_writer_init_cfile @3748
    mz_zip_writer_init_file @3749
    mz_zip_writer_init_file_v2 @3750
    mz_zip_writer_init_from_reader @3751
    mz_zip_writer_init_from_reader_v2 @3752
    mz_zip_writer_init_heap @3753
    mz_zip_writer_init_heap_v2 @3754
    mz_zip_writer_init_v2 @3755
    mz_zip_zero_struct @3756
    stl_add_facet @3757
    stl_allocate @3758
    stl_calculate_normal @3759
    stl_calculate_volume @3760
    stl_check_facets_exact @3761
    stl_check_facets_nearby @3762
    stl_check_normal_vector @3763
    stl_clear_error @3764
    stl_close @3765
    stl_count_facets @3766
    stl_exit_on_error @3767
    stl_facet_stats @3768
    stl_fill_holes @3769
    stl_fix_normal_directions @3770
    stl_fix_normal_values @3771
    stl_generate_shared_vertices @3772
    stl_get_error @3773
    stl_get_size @3774
    stl_get_transform @3775
    stl_initialize @3776
    stl_invalidate_shared_vertices @3777
    stl_mirror_xy @3778
    stl_mirror_xz @3779
    stl_mirror_yz @3780
    stl_normalize_vector @3781
    stl_open @3782
    stl_open_merge @3783
    stl_print_edges @3784
    stl_print_neighbors @3785
    stl_read @3786
    stl_reallocate @3787
    stl_remove_unconnected_facets @3788
    stl_repair @3789
    stl_reverse_all_facets @3790
    stl_rotate_x @3791
    stl_rotate_y @3792
    stl_rotate_z @3793
    stl_scale @3794
    stl_scale_versor @3795
    stl_stats_out @3796
    stl_transform @3797
    stl_translate @3798
    stl_translate_relative @3799
    stl_verify_neighbors @3800
    stl_write_ascii @3801
    stl_write_binary @3802
    stl_write_dxf @3803
    stl_write_edge @3804
    stl_write_facet @3805
    stl_write_neighbor @3806
    stl_write_obj @3807
    stl_write_off @3808
    stl_write_quad_object @3809
    stl_write_vertex @3810
    stl_write_vrml @3811
    tdefl_compress @3812
    tdefl_compress_buffer @3813
    tdefl_compress_mem_to_heap @3814
    tdefl_compress_mem_to_mem @3815
    tdefl_compress_mem_to_output @3816
    tdefl_compressor_alloc @3817
    tdefl_compressor_free @3818
    tdefl_create_comp_flags_from_zip_params @3819
    tdefl_get_adler32 @3820
    tdefl_get_prev_return_status @3821
    tdefl_init @3822
    tdefl_write_image_to_png_file_in_memory @3823
    tdefl_write_image_to_png_file_in_memory_ex @3824
    tinfl_decompress @3825
    tinfl_decompress_mem_to_callback @3826
    tinfl_decompress_mem_to_heap @3827
    tinfl_decompress_mem_to_mem @3828
    tinfl_decompressor_alloc @3829
    tinfl_decompressor_free @3830
